Archive member included to satisfy reference by file (symbol)

/usr/lib/gcc/arm-none-eabi/9.2.1/../../../arm-none-eabi/lib/thumb/v7e-m+fp/hard/libc_nano.a(lib_a-atexit.o)
                              /usr/lib/gcc/arm-none-eabi/9.2.1/../../../arm-none-eabi/lib/thumb/v7e-m+fp/hard/crt0.o (atexit)
/usr/lib/gcc/arm-none-eabi/9.2.1/../../../arm-none-eabi/lib/thumb/v7e-m+fp/hard/libc_nano.a(lib_a-exit.o)
                              /usr/lib/gcc/arm-none-eabi/9.2.1/../../../arm-none-eabi/lib/thumb/v7e-m+fp/hard/crt0.o (exit)
/usr/lib/gcc/arm-none-eabi/9.2.1/../../../arm-none-eabi/lib/thumb/v7e-m+fp/hard/libc_nano.a(lib_a-fini.o)
                              /usr/lib/gcc/arm-none-eabi/9.2.1/../../../arm-none-eabi/lib/thumb/v7e-m+fp/hard/crt0.o (__libc_fini_array)
/usr/lib/gcc/arm-none-eabi/9.2.1/../../../arm-none-eabi/lib/thumb/v7e-m+fp/hard/libc_nano.a(lib_a-impure.o)
                              /usr/lib/gcc/arm-none-eabi/9.2.1/../../../arm-none-eabi/lib/thumb/v7e-m+fp/hard/libc_nano.a(lib_a-exit.o) (_global_impure_ptr)
/usr/lib/gcc/arm-none-eabi/9.2.1/../../../arm-none-eabi/lib/thumb/v7e-m+fp/hard/libc_nano.a(lib_a-init.o)
                              /usr/lib/gcc/arm-none-eabi/9.2.1/../../../arm-none-eabi/lib/thumb/v7e-m+fp/hard/crt0.o (__libc_init_array)
/usr/lib/gcc/arm-none-eabi/9.2.1/../../../arm-none-eabi/lib/thumb/v7e-m+fp/hard/libc_nano.a(lib_a-memset.o)
                              /usr/lib/gcc/arm-none-eabi/9.2.1/../../../arm-none-eabi/lib/thumb/v7e-m+fp/hard/crt0.o (memset)
/usr/lib/gcc/arm-none-eabi/9.2.1/../../../arm-none-eabi/lib/thumb/v7e-m+fp/hard/libc_nano.a(lib_a-__atexit.o)
                              /usr/lib/gcc/arm-none-eabi/9.2.1/../../../arm-none-eabi/lib/thumb/v7e-m+fp/hard/libc_nano.a(lib_a-atexit.o) (__register_exitproc)
/usr/lib/gcc/arm-none-eabi/9.2.1/../../../arm-none-eabi/lib/thumb/v7e-m+fp/hard/libc_nano.a(lib_a-__call_atexit.o)
                              /usr/lib/gcc/arm-none-eabi/9.2.1/../../../arm-none-eabi/lib/thumb/v7e-m+fp/hard/libc_nano.a(lib_a-__atexit.o) (__call_exitprocs)
/usr/lib/gcc/arm-none-eabi/9.2.1/../../../arm-none-eabi/lib/thumb/v7e-m+fp/hard/libnosys.a(_exit.o)
                              /usr/lib/gcc/arm-none-eabi/9.2.1/../../../arm-none-eabi/lib/thumb/v7e-m+fp/hard/libc_nano.a(lib_a-exit.o) (_exit)
/usr/lib/gcc/arm-none-eabi/9.2.1/thumb/v7e-m+fp/hard/libgcc.a(_aeabi_uldivmod.o)
                              hal/Drivers/STM32G4xx_HAL_Driver/Src/stm32g4xx_hal_uart.o (__aeabi_uldivmod)
/usr/lib/gcc/arm-none-eabi/9.2.1/thumb/v7e-m+fp/hard/libgcc.a(_udivmoddi4.o)
                              /usr/lib/gcc/arm-none-eabi/9.2.1/thumb/v7e-m+fp/hard/libgcc.a(_aeabi_uldivmod.o) (__udivmoddi4)
/usr/lib/gcc/arm-none-eabi/9.2.1/thumb/v7e-m+fp/hard/libgcc.a(_dvmd_tls.o)
                              /usr/lib/gcc/arm-none-eabi/9.2.1/thumb/v7e-m+fp/hard/libgcc.a(_aeabi_uldivmod.o) (__aeabi_ldiv0)
/usr/lib/gcc/arm-none-eabi/9.2.1/../../../arm-none-eabi/lib/thumb/v7e-m+fp/hard/libc_nano.a(lib_a-assert.o)
                              /mnt/d/Marcelo/bitbucket/mcuboot/mcuboot/boot/bootutil/src/bootutil_misc.o (__assert_func)
/usr/lib/gcc/arm-none-eabi/9.2.1/../../../arm-none-eabi/lib/thumb/v7e-m+fp/hard/libc_nano.a(lib_a-fprintf.o)
                              /usr/lib/gcc/arm-none-eabi/9.2.1/../../../arm-none-eabi/lib/thumb/v7e-m+fp/hard/libc_nano.a(lib_a-assert.o) (fiprintf)
/usr/lib/gcc/arm-none-eabi/9.2.1/../../../arm-none-eabi/lib/thumb/v7e-m+fp/hard/libc_nano.a(lib_a-malloc.o)
                              /mnt/d/Marcelo/bitbucket/mcuboot/mcuboot/boot/bootutil/src/loader.o (malloc)
/usr/lib/gcc/arm-none-eabi/9.2.1/../../../arm-none-eabi/lib/thumb/v7e-m+fp/hard/libc_nano.a(lib_a-memcmp.o)
                              /mnt/d/Marcelo/bitbucket/mcuboot/mcuboot/boot/bootutil/src/bootutil_misc.o (memcmp)
/usr/lib/gcc/arm-none-eabi/9.2.1/../../../arm-none-eabi/lib/thumb/v7e-m+fp/hard/libc_nano.a(lib_a-memcpy.o)
                              /mnt/d/Marcelo/bitbucket/mcuboot/mcuboot/boot/bootutil/src/bootutil_public.o (memcpy)
/usr/lib/gcc/arm-none-eabi/9.2.1/../../../arm-none-eabi/lib/thumb/v7e-m+fp/hard/libc_nano.a(lib_a-nano-freer.o)
                              /usr/lib/gcc/arm-none-eabi/9.2.1/../../../arm-none-eabi/lib/thumb/v7e-m+fp/hard/libc_nano.a(lib_a-malloc.o) (_free_r)
/usr/lib/gcc/arm-none-eabi/9.2.1/../../../arm-none-eabi/lib/thumb/v7e-m+fp/hard/libc_nano.a(lib_a-nano-mallocr.o)
                              /usr/lib/gcc/arm-none-eabi/9.2.1/../../../arm-none-eabi/lib/thumb/v7e-m+fp/hard/libc_nano.a(lib_a-malloc.o) (_malloc_r)
/usr/lib/gcc/arm-none-eabi/9.2.1/../../../arm-none-eabi/lib/thumb/v7e-m+fp/hard/libc_nano.a(lib_a-nano-vfprintf.o)
                              /usr/lib/gcc/arm-none-eabi/9.2.1/../../../arm-none-eabi/lib/thumb/v7e-m+fp/hard/libc_nano.a(lib_a-fprintf.o) (_vfprintf_r)
/usr/lib/gcc/arm-none-eabi/9.2.1/../../../arm-none-eabi/lib/thumb/v7e-m+fp/hard/libc_nano.a(lib_a-nano-vfprintf_i.o)
                              /usr/lib/gcc/arm-none-eabi/9.2.1/../../../arm-none-eabi/lib/thumb/v7e-m+fp/hard/libc_nano.a(lib_a-nano-vfprintf.o) (_printf_i)
/usr/lib/gcc/arm-none-eabi/9.2.1/../../../arm-none-eabi/lib/thumb/v7e-m+fp/hard/libc_nano.a(lib_a-printf.o)
                              /mnt/d/Marcelo/bitbucket/mcuboot/mcuboot/boot/bootutil/src/bootutil_public.o (printf)
/usr/lib/gcc/arm-none-eabi/9.2.1/../../../arm-none-eabi/lib/thumb/v7e-m+fp/hard/libc_nano.a(lib_a-sbrkr.o)
                              /usr/lib/gcc/arm-none-eabi/9.2.1/../../../arm-none-eabi/lib/thumb/v7e-m+fp/hard/libc_nano.a(lib_a-nano-mallocr.o) (_sbrk_r)
/usr/lib/gcc/arm-none-eabi/9.2.1/../../../arm-none-eabi/lib/thumb/v7e-m+fp/hard/libc_nano.a(lib_a-wbuf.o)
                              /usr/lib/gcc/arm-none-eabi/9.2.1/../../../arm-none-eabi/lib/thumb/v7e-m+fp/hard/libc_nano.a(lib_a-nano-vfprintf.o) (__swbuf_r)
/usr/lib/gcc/arm-none-eabi/9.2.1/../../../arm-none-eabi/lib/thumb/v7e-m+fp/hard/libc_nano.a(lib_a-wsetup.o)
                              /usr/lib/gcc/arm-none-eabi/9.2.1/../../../arm-none-eabi/lib/thumb/v7e-m+fp/hard/libc_nano.a(lib_a-nano-vfprintf.o) (__swsetup_r)
/usr/lib/gcc/arm-none-eabi/9.2.1/../../../arm-none-eabi/lib/thumb/v7e-m+fp/hard/libc_nano.a(lib_a-abort.o)
                              /usr/lib/gcc/arm-none-eabi/9.2.1/../../../arm-none-eabi/lib/thumb/v7e-m+fp/hard/libc_nano.a(lib_a-assert.o) (abort)
/usr/lib/gcc/arm-none-eabi/9.2.1/../../../arm-none-eabi/lib/thumb/v7e-m+fp/hard/libc_nano.a(lib_a-fflush.o)
                              /usr/lib/gcc/arm-none-eabi/9.2.1/../../../arm-none-eabi/lib/thumb/v7e-m+fp/hard/libc_nano.a(lib_a-wbuf.o) (_fflush_r)
/usr/lib/gcc/arm-none-eabi/9.2.1/../../../arm-none-eabi/lib/thumb/v7e-m+fp/hard/libc_nano.a(lib_a-findfp.o)
                              /usr/lib/gcc/arm-none-eabi/9.2.1/../../../arm-none-eabi/lib/thumb/v7e-m+fp/hard/libc_nano.a(lib_a-nano-vfprintf.o) (__sinit)
/usr/lib/gcc/arm-none-eabi/9.2.1/../../../arm-none-eabi/lib/thumb/v7e-m+fp/hard/libc_nano.a(lib_a-fvwrite.o)
                              /usr/lib/gcc/arm-none-eabi/9.2.1/../../../arm-none-eabi/lib/thumb/v7e-m+fp/hard/libc_nano.a(lib_a-nano-vfprintf.o) (__sfvwrite_r)
/usr/lib/gcc/arm-none-eabi/9.2.1/../../../arm-none-eabi/lib/thumb/v7e-m+fp/hard/libc_nano.a(lib_a-fwalk.o)
                              /usr/lib/gcc/arm-none-eabi/9.2.1/../../../arm-none-eabi/lib/thumb/v7e-m+fp/hard/libc_nano.a(lib_a-findfp.o) (_fwalk)
/usr/lib/gcc/arm-none-eabi/9.2.1/../../../arm-none-eabi/lib/thumb/v7e-m+fp/hard/libc_nano.a(lib_a-makebuf.o)
                              /usr/lib/gcc/arm-none-eabi/9.2.1/../../../arm-none-eabi/lib/thumb/v7e-m+fp/hard/libc_nano.a(lib_a-wsetup.o) (__smakebuf_r)
/usr/lib/gcc/arm-none-eabi/9.2.1/../../../arm-none-eabi/lib/thumb/v7e-m+fp/hard/libc_nano.a(lib_a-memchr.o)
                              /usr/lib/gcc/arm-none-eabi/9.2.1/../../../arm-none-eabi/lib/thumb/v7e-m+fp/hard/libc_nano.a(lib_a-nano-vfprintf.o) (memchr)
/usr/lib/gcc/arm-none-eabi/9.2.1/../../../arm-none-eabi/lib/thumb/v7e-m+fp/hard/libc_nano.a(lib_a-memmove.o)
                              /usr/lib/gcc/arm-none-eabi/9.2.1/../../../arm-none-eabi/lib/thumb/v7e-m+fp/hard/libc_nano.a(lib_a-fvwrite.o) (memmove)
/usr/lib/gcc/arm-none-eabi/9.2.1/../../../arm-none-eabi/lib/thumb/v7e-m+fp/hard/libc_nano.a(lib_a-mlock.o)
                              /usr/lib/gcc/arm-none-eabi/9.2.1/../../../arm-none-eabi/lib/thumb/v7e-m+fp/hard/libc_nano.a(lib_a-nano-freer.o) (__malloc_lock)
/usr/lib/gcc/arm-none-eabi/9.2.1/../../../arm-none-eabi/lib/thumb/v7e-m+fp/hard/libc_nano.a(lib_a-nano-reallocr.o)
                              /usr/lib/gcc/arm-none-eabi/9.2.1/../../../arm-none-eabi/lib/thumb/v7e-m+fp/hard/libc_nano.a(lib_a-fvwrite.o) (_realloc_r)
/usr/lib/gcc/arm-none-eabi/9.2.1/../../../arm-none-eabi/lib/thumb/v7e-m+fp/hard/libc_nano.a(lib_a-reent.o)
                              /usr/lib/gcc/arm-none-eabi/9.2.1/../../../arm-none-eabi/lib/thumb/v7e-m+fp/hard/libc_nano.a(lib_a-sbrkr.o) (errno)
/usr/lib/gcc/arm-none-eabi/9.2.1/../../../arm-none-eabi/lib/thumb/v7e-m+fp/hard/libc_nano.a(lib_a-signal.o)
                              /usr/lib/gcc/arm-none-eabi/9.2.1/../../../arm-none-eabi/lib/thumb/v7e-m+fp/hard/libc_nano.a(lib_a-abort.o) (raise)
/usr/lib/gcc/arm-none-eabi/9.2.1/../../../arm-none-eabi/lib/thumb/v7e-m+fp/hard/libc_nano.a(lib_a-signalr.o)
                              /usr/lib/gcc/arm-none-eabi/9.2.1/../../../arm-none-eabi/lib/thumb/v7e-m+fp/hard/libc_nano.a(lib_a-signal.o) (_kill_r)
/usr/lib/gcc/arm-none-eabi/9.2.1/../../../arm-none-eabi/lib/thumb/v7e-m+fp/hard/libc_nano.a(lib_a-stdio.o)
                              /usr/lib/gcc/arm-none-eabi/9.2.1/../../../arm-none-eabi/lib/thumb/v7e-m+fp/hard/libc_nano.a(lib_a-findfp.o) (__sread)
/usr/lib/gcc/arm-none-eabi/9.2.1/../../../arm-none-eabi/lib/thumb/v7e-m+fp/hard/libc_nano.a(lib_a-writer.o)
                              /usr/lib/gcc/arm-none-eabi/9.2.1/../../../arm-none-eabi/lib/thumb/v7e-m+fp/hard/libc_nano.a(lib_a-stdio.o) (_write_r)
/usr/lib/gcc/arm-none-eabi/9.2.1/../../../arm-none-eabi/lib/thumb/v7e-m+fp/hard/libc_nano.a(lib_a-closer.o)
                              /usr/lib/gcc/arm-none-eabi/9.2.1/../../../arm-none-eabi/lib/thumb/v7e-m+fp/hard/libc_nano.a(lib_a-stdio.o) (_close_r)
/usr/lib/gcc/arm-none-eabi/9.2.1/../../../arm-none-eabi/lib/thumb/v7e-m+fp/hard/libc_nano.a(lib_a-fstatr.o)
                              /usr/lib/gcc/arm-none-eabi/9.2.1/../../../arm-none-eabi/lib/thumb/v7e-m+fp/hard/libc_nano.a(lib_a-makebuf.o) (_fstat_r)
/usr/lib/gcc/arm-none-eabi/9.2.1/../../../arm-none-eabi/lib/thumb/v7e-m+fp/hard/libc_nano.a(lib_a-isattyr.o)
                              /usr/lib/gcc/arm-none-eabi/9.2.1/../../../arm-none-eabi/lib/thumb/v7e-m+fp/hard/libc_nano.a(lib_a-makebuf.o) (_isatty_r)
/usr/lib/gcc/arm-none-eabi/9.2.1/../../../arm-none-eabi/lib/thumb/v7e-m+fp/hard/libc_nano.a(lib_a-lseekr.o)
                              /usr/lib/gcc/arm-none-eabi/9.2.1/../../../arm-none-eabi/lib/thumb/v7e-m+fp/hard/libc_nano.a(lib_a-stdio.o) (_lseek_r)
/usr/lib/gcc/arm-none-eabi/9.2.1/../../../arm-none-eabi/lib/thumb/v7e-m+fp/hard/libc_nano.a(lib_a-nano-msizer.o)
                              /usr/lib/gcc/arm-none-eabi/9.2.1/../../../arm-none-eabi/lib/thumb/v7e-m+fp/hard/libc_nano.a(lib_a-nano-reallocr.o) (_malloc_usable_size_r)
/usr/lib/gcc/arm-none-eabi/9.2.1/../../../arm-none-eabi/lib/thumb/v7e-m+fp/hard/libc_nano.a(lib_a-readr.o)
                              /usr/lib/gcc/arm-none-eabi/9.2.1/../../../arm-none-eabi/lib/thumb/v7e-m+fp/hard/libc_nano.a(lib_a-stdio.o) (_read_r)

Allocating common symbols
Common symbol       size              file

errno               0x4               /usr/lib/gcc/arm-none-eabi/9.2.1/../../../arm-none-eabi/lib/thumb/v7e-m+fp/hard/libc_nano.a(lib_a-reent.o)
uwTick              0x4               hal/Drivers/STM32G4xx_HAL_Driver/Src/stm32g4xx_hal.o
huart2              0x90              hal/Core/Src/main.o
boot_current_slot   0x4               /mnt/d/Marcelo/bitbucket/mcuboot/mcuboot/boot/bootutil/src/bootutil_misc.o

Discarded input sections

 .text          0x0000000000000000        0x0 /usr/lib/gcc/arm-none-eabi/9.2.1/thumb/v7e-m+fp/hard/crti.o
 .data          0x0000000000000000        0x0 /usr/lib/gcc/arm-none-eabi/9.2.1/thumb/v7e-m+fp/hard/crti.o
 .bss           0x0000000000000000        0x0 /usr/lib/gcc/arm-none-eabi/9.2.1/thumb/v7e-m+fp/hard/crti.o
 .data          0x0000000000000000        0x4 /usr/lib/gcc/arm-none-eabi/9.2.1/thumb/v7e-m+fp/hard/crtbegin.o
 .text          0x0000000000000000       0x70 /usr/lib/gcc/arm-none-eabi/9.2.1/../../../arm-none-eabi/lib/thumb/v7e-m+fp/hard/crt0.o
 .data          0x0000000000000000        0x0 /usr/lib/gcc/arm-none-eabi/9.2.1/../../../arm-none-eabi/lib/thumb/v7e-m+fp/hard/crt0.o
 .bss           0x0000000000000000        0x0 /usr/lib/gcc/arm-none-eabi/9.2.1/../../../arm-none-eabi/lib/thumb/v7e-m+fp/hard/crt0.o
 .ARM.extab     0x0000000000000000        0x0 /usr/lib/gcc/arm-none-eabi/9.2.1/../../../arm-none-eabi/lib/thumb/v7e-m+fp/hard/crt0.o
 .ARM.exidx     0x0000000000000000       0x10 /usr/lib/gcc/arm-none-eabi/9.2.1/../../../arm-none-eabi/lib/thumb/v7e-m+fp/hard/crt0.o
 .debug_line    0x0000000000000000       0x87 /usr/lib/gcc/arm-none-eabi/9.2.1/../../../arm-none-eabi/lib/thumb/v7e-m+fp/hard/crt0.o
 .debug_info    0x0000000000000000       0x26 /usr/lib/gcc/arm-none-eabi/9.2.1/../../../arm-none-eabi/lib/thumb/v7e-m+fp/hard/crt0.o
 .debug_abbrev  0x0000000000000000       0x14 /usr/lib/gcc/arm-none-eabi/9.2.1/../../../arm-none-eabi/lib/thumb/v7e-m+fp/hard/crt0.o
 .debug_aranges
                0x0000000000000000       0x20 /usr/lib/gcc/arm-none-eabi/9.2.1/../../../arm-none-eabi/lib/thumb/v7e-m+fp/hard/crt0.o
 .debug_str     0x0000000000000000       0x98 /usr/lib/gcc/arm-none-eabi/9.2.1/../../../arm-none-eabi/lib/thumb/v7e-m+fp/hard/crt0.o
 .ARM.attributes
                0x0000000000000000       0x1c /usr/lib/gcc/arm-none-eabi/9.2.1/../../../arm-none-eabi/lib/thumb/v7e-m+fp/hard/crt0.o
 .text          0x0000000000000000        0xc /usr/lib/gcc/arm-none-eabi/9.2.1/../../../arm-none-eabi/lib/thumb/v7e-m+fp/hard/libc_nano.a(lib_a-atexit.o)
 .data          0x0000000000000000        0x0 /usr/lib/gcc/arm-none-eabi/9.2.1/../../../arm-none-eabi/lib/thumb/v7e-m+fp/hard/libc_nano.a(lib_a-atexit.o)
 .bss           0x0000000000000000        0x0 /usr/lib/gcc/arm-none-eabi/9.2.1/../../../arm-none-eabi/lib/thumb/v7e-m+fp/hard/libc_nano.a(lib_a-atexit.o)
 .debug_info    0x0000000000000000      0x995 /usr/lib/gcc/arm-none-eabi/9.2.1/../../../arm-none-eabi/lib/thumb/v7e-m+fp/hard/libc_nano.a(lib_a-atexit.o)
 .debug_abbrev  0x0000000000000000      0x1f4 /usr/lib/gcc/arm-none-eabi/9.2.1/../../../arm-none-eabi/lib/thumb/v7e-m+fp/hard/libc_nano.a(lib_a-atexit.o)
 .debug_loc     0x0000000000000000       0x32 /usr/lib/gcc/arm-none-eabi/9.2.1/../../../arm-none-eabi/lib/thumb/v7e-m+fp/hard/libc_nano.a(lib_a-atexit.o)
 .debug_aranges
                0x0000000000000000       0x20 /usr/lib/gcc/arm-none-eabi/9.2.1/../../../arm-none-eabi/lib/thumb/v7e-m+fp/hard/libc_nano.a(lib_a-atexit.o)
 .debug_line    0x0000000000000000      0x14a /usr/lib/gcc/arm-none-eabi/9.2.1/../../../arm-none-eabi/lib/thumb/v7e-m+fp/hard/libc_nano.a(lib_a-atexit.o)
 .debug_str     0x0000000000000000      0x62d /usr/lib/gcc/arm-none-eabi/9.2.1/../../../arm-none-eabi/lib/thumb/v7e-m+fp/hard/libc_nano.a(lib_a-atexit.o)
 .comment       0x0000000000000000       0x4f /usr/lib/gcc/arm-none-eabi/9.2.1/../../../arm-none-eabi/lib/thumb/v7e-m+fp/hard/libc_nano.a(lib_a-atexit.o)
 .debug_frame   0x0000000000000000       0x20 /usr/lib/gcc/arm-none-eabi/9.2.1/../../../arm-none-eabi/lib/thumb/v7e-m+fp/hard/libc_nano.a(lib_a-atexit.o)
 .ARM.attributes
                0x0000000000000000       0x34 /usr/lib/gcc/arm-none-eabi/9.2.1/../../../arm-none-eabi/lib/thumb/v7e-m+fp/hard/libc_nano.a(lib_a-atexit.o)
 .text          0x0000000000000000       0x28 /usr/lib/gcc/arm-none-eabi/9.2.1/../../../arm-none-eabi/lib/thumb/v7e-m+fp/hard/libc_nano.a(lib_a-exit.o)
 .data          0x0000000000000000        0x0 /usr/lib/gcc/arm-none-eabi/9.2.1/../../../arm-none-eabi/lib/thumb/v7e-m+fp/hard/libc_nano.a(lib_a-exit.o)
 .bss           0x0000000000000000        0x0 /usr/lib/gcc/arm-none-eabi/9.2.1/../../../arm-none-eabi/lib/thumb/v7e-m+fp/hard/libc_nano.a(lib_a-exit.o)
 .debug_info    0x0000000000000000      0x9e7 /usr/lib/gcc/arm-none-eabi/9.2.1/../../../arm-none-eabi/lib/thumb/v7e-m+fp/hard/libc_nano.a(lib_a-exit.o)
 .debug_abbrev  0x0000000000000000      0x1f6 /usr/lib/gcc/arm-none-eabi/9.2.1/../../../arm-none-eabi/lib/thumb/v7e-m+fp/hard/libc_nano.a(lib_a-exit.o)
 .debug_loc     0x0000000000000000       0x22 /usr/lib/gcc/arm-none-eabi/9.2.1/../../../arm-none-eabi/lib/thumb/v7e-m+fp/hard/libc_nano.a(lib_a-exit.o)
 .debug_aranges
                0x0000000000000000       0x20 /usr/lib/gcc/arm-none-eabi/9.2.1/../../../arm-none-eabi/lib/thumb/v7e-m+fp/hard/libc_nano.a(lib_a-exit.o)
 .debug_line    0x0000000000000000      0x16c /usr/lib/gcc/arm-none-eabi/9.2.1/../../../arm-none-eabi/lib/thumb/v7e-m+fp/hard/libc_nano.a(lib_a-exit.o)
 .debug_str     0x0000000000000000      0x62e /usr/lib/gcc/arm-none-eabi/9.2.1/../../../arm-none-eabi/lib/thumb/v7e-m+fp/hard/libc_nano.a(lib_a-exit.o)
 .comment       0x0000000000000000       0x4f /usr/lib/gcc/arm-none-eabi/9.2.1/../../../arm-none-eabi/lib/thumb/v7e-m+fp/hard/libc_nano.a(lib_a-exit.o)
 .debug_frame   0x0000000000000000       0x28 /usr/lib/gcc/arm-none-eabi/9.2.1/../../../arm-none-eabi/lib/thumb/v7e-m+fp/hard/libc_nano.a(lib_a-exit.o)
 .ARM.attributes
                0x0000000000000000       0x34 /usr/lib/gcc/arm-none-eabi/9.2.1/../../../arm-none-eabi/lib/thumb/v7e-m+fp/hard/libc_nano.a(lib_a-exit.o)
 .text          0x0000000000000000       0x34 /usr/lib/gcc/arm-none-eabi/9.2.1/../../../arm-none-eabi/lib/thumb/v7e-m+fp/hard/libc_nano.a(lib_a-fini.o)
 .data          0x0000000000000000        0x0 /usr/lib/gcc/arm-none-eabi/9.2.1/../../../arm-none-eabi/lib/thumb/v7e-m+fp/hard/libc_nano.a(lib_a-fini.o)
 .bss           0x0000000000000000        0x0 /usr/lib/gcc/arm-none-eabi/9.2.1/../../../arm-none-eabi/lib/thumb/v7e-m+fp/hard/libc_nano.a(lib_a-fini.o)
 .debug_info    0x0000000000000000      0x102 /usr/lib/gcc/arm-none-eabi/9.2.1/../../../arm-none-eabi/lib/thumb/v7e-m+fp/hard/libc_nano.a(lib_a-fini.o)
 .debug_abbrev  0x0000000000000000       0xcf /usr/lib/gcc/arm-none-eabi/9.2.1/../../../arm-none-eabi/lib/thumb/v7e-m+fp/hard/libc_nano.a(lib_a-fini.o)
 .debug_loc     0x0000000000000000       0x68 /usr/lib/gcc/arm-none-eabi/9.2.1/../../../arm-none-eabi/lib/thumb/v7e-m+fp/hard/libc_nano.a(lib_a-fini.o)
 .debug_aranges
                0x0000000000000000       0x20 /usr/lib/gcc/arm-none-eabi/9.2.1/../../../arm-none-eabi/lib/thumb/v7e-m+fp/hard/libc_nano.a(lib_a-fini.o)
 .debug_line    0x0000000000000000       0xd7 /usr/lib/gcc/arm-none-eabi/9.2.1/../../../arm-none-eabi/lib/thumb/v7e-m+fp/hard/libc_nano.a(lib_a-fini.o)
 .debug_str     0x0000000000000000      0x1ff /usr/lib/gcc/arm-none-eabi/9.2.1/../../../arm-none-eabi/lib/thumb/v7e-m+fp/hard/libc_nano.a(lib_a-fini.o)
 .comment       0x0000000000000000       0x4f /usr/lib/gcc/arm-none-eabi/9.2.1/../../../arm-none-eabi/lib/thumb/v7e-m+fp/hard/libc_nano.a(lib_a-fini.o)
 .debug_frame   0x0000000000000000       0x34 /usr/lib/gcc/arm-none-eabi/9.2.1/../../../arm-none-eabi/lib/thumb/v7e-m+fp/hard/libc_nano.a(lib_a-fini.o)
 .ARM.attributes
                0x0000000000000000       0x34 /usr/lib/gcc/arm-none-eabi/9.2.1/../../../arm-none-eabi/lib/thumb/v7e-m+fp/hard/libc_nano.a(lib_a-fini.o)
 .text          0x0000000000000000        0x0 /usr/lib/gcc/arm-none-eabi/9.2.1/../../../arm-none-eabi/lib/thumb/v7e-m+fp/hard/libc_nano.a(lib_a-impure.o)
 .bss           0x0000000000000000        0x0 /usr/lib/gcc/arm-none-eabi/9.2.1/../../../arm-none-eabi/lib/thumb/v7e-m+fp/hard/libc_nano.a(lib_a-impure.o)
 .data          0x0000000000000000        0x0 /usr/lib/gcc/arm-none-eabi/9.2.1/../../../arm-none-eabi/lib/thumb/v7e-m+fp/hard/libc_nano.a(lib_a-init.o)
 .bss           0x0000000000000000        0x0 /usr/lib/gcc/arm-none-eabi/9.2.1/../../../arm-none-eabi/lib/thumb/v7e-m+fp/hard/libc_nano.a(lib_a-init.o)
 .data          0x0000000000000000        0x0 /usr/lib/gcc/arm-none-eabi/9.2.1/../../../arm-none-eabi/lib/thumb/v7e-m+fp/hard/libc_nano.a(lib_a-memset.o)
 .bss           0x0000000000000000        0x0 /usr/lib/gcc/arm-none-eabi/9.2.1/../../../arm-none-eabi/lib/thumb/v7e-m+fp/hard/libc_nano.a(lib_a-memset.o)
 .text          0x0000000000000000       0xa0 /usr/lib/gcc/arm-none-eabi/9.2.1/../../../arm-none-eabi/lib/thumb/v7e-m+fp/hard/libc_nano.a(lib_a-__atexit.o)
 .data          0x0000000000000000        0x4 /usr/lib/gcc/arm-none-eabi/9.2.1/../../../arm-none-eabi/lib/thumb/v7e-m+fp/hard/libc_nano.a(lib_a-__atexit.o)
 .bss           0x0000000000000000       0x8c /usr/lib/gcc/arm-none-eabi/9.2.1/../../../arm-none-eabi/lib/thumb/v7e-m+fp/hard/libc_nano.a(lib_a-__atexit.o)
 .debug_info    0x0000000000000000      0xa3c /usr/lib/gcc/arm-none-eabi/9.2.1/../../../arm-none-eabi/lib/thumb/v7e-m+fp/hard/libc_nano.a(lib_a-__atexit.o)
 .debug_abbrev  0x0000000000000000      0x261 /usr/lib/gcc/arm-none-eabi/9.2.1/../../../arm-none-eabi/lib/thumb/v7e-m+fp/hard/libc_nano.a(lib_a-__atexit.o)
 .debug_loc     0x0000000000000000      0x230 /usr/lib/gcc/arm-none-eabi/9.2.1/../../../arm-none-eabi/lib/thumb/v7e-m+fp/hard/libc_nano.a(lib_a-__atexit.o)
 .debug_aranges
                0x0000000000000000       0x20 /usr/lib/gcc/arm-none-eabi/9.2.1/../../../arm-none-eabi/lib/thumb/v7e-m+fp/hard/libc_nano.a(lib_a-__atexit.o)
 .debug_line    0x0000000000000000      0x228 /usr/lib/gcc/arm-none-eabi/9.2.1/../../../arm-none-eabi/lib/thumb/v7e-m+fp/hard/libc_nano.a(lib_a-__atexit.o)
 .debug_str     0x0000000000000000      0x680 /usr/lib/gcc/arm-none-eabi/9.2.1/../../../arm-none-eabi/lib/thumb/v7e-m+fp/hard/libc_nano.a(lib_a-__atexit.o)
 .comment       0x0000000000000000       0x4f /usr/lib/gcc/arm-none-eabi/9.2.1/../../../arm-none-eabi/lib/thumb/v7e-m+fp/hard/libc_nano.a(lib_a-__atexit.o)
 .debug_frame   0x0000000000000000       0x34 /usr/lib/gcc/arm-none-eabi/9.2.1/../../../arm-none-eabi/lib/thumb/v7e-m+fp/hard/libc_nano.a(lib_a-__atexit.o)
 .ARM.attributes
                0x0000000000000000       0x34 /usr/lib/gcc/arm-none-eabi/9.2.1/../../../arm-none-eabi/lib/thumb/v7e-m+fp/hard/libc_nano.a(lib_a-__atexit.o)
 .text          0x0000000000000000       0x9c /usr/lib/gcc/arm-none-eabi/9.2.1/../../../arm-none-eabi/lib/thumb/v7e-m+fp/hard/libc_nano.a(lib_a-__call_atexit.o)
 .data          0x0000000000000000        0x0 /usr/lib/gcc/arm-none-eabi/9.2.1/../../../arm-none-eabi/lib/thumb/v7e-m+fp/hard/libc_nano.a(lib_a-__call_atexit.o)
 .bss           0x0000000000000000        0x4 /usr/lib/gcc/arm-none-eabi/9.2.1/../../../arm-none-eabi/lib/thumb/v7e-m+fp/hard/libc_nano.a(lib_a-__call_atexit.o)
 .debug_info    0x0000000000000000      0xa10 /usr/lib/gcc/arm-none-eabi/9.2.1/../../../arm-none-eabi/lib/thumb/v7e-m+fp/hard/libc_nano.a(lib_a-__call_atexit.o)
 .debug_abbrev  0x0000000000000000      0x237 /usr/lib/gcc/arm-none-eabi/9.2.1/../../../arm-none-eabi/lib/thumb/v7e-m+fp/hard/libc_nano.a(lib_a-__call_atexit.o)
 .debug_loc     0x0000000000000000      0x13f /usr/lib/gcc/arm-none-eabi/9.2.1/../../../arm-none-eabi/lib/thumb/v7e-m+fp/hard/libc_nano.a(lib_a-__call_atexit.o)
 .debug_aranges
                0x0000000000000000       0x20 /usr/lib/gcc/arm-none-eabi/9.2.1/../../../arm-none-eabi/lib/thumb/v7e-m+fp/hard/libc_nano.a(lib_a-__call_atexit.o)
 .debug_ranges  0x0000000000000000       0x28 /usr/lib/gcc/arm-none-eabi/9.2.1/../../../arm-none-eabi/lib/thumb/v7e-m+fp/hard/libc_nano.a(lib_a-__call_atexit.o)
 .debug_line    0x0000000000000000      0x22a /usr/lib/gcc/arm-none-eabi/9.2.1/../../../arm-none-eabi/lib/thumb/v7e-m+fp/hard/libc_nano.a(lib_a-__call_atexit.o)
 .debug_str     0x0000000000000000      0x62b /usr/lib/gcc/arm-none-eabi/9.2.1/../../../arm-none-eabi/lib/thumb/v7e-m+fp/hard/libc_nano.a(lib_a-__call_atexit.o)
 .comment       0x0000000000000000       0x4f /usr/lib/gcc/arm-none-eabi/9.2.1/../../../arm-none-eabi/lib/thumb/v7e-m+fp/hard/libc_nano.a(lib_a-__call_atexit.o)
 .debug_frame   0x0000000000000000       0x40 /usr/lib/gcc/arm-none-eabi/9.2.1/../../../arm-none-eabi/lib/thumb/v7e-m+fp/hard/libc_nano.a(lib_a-__call_atexit.o)
 .ARM.attributes
                0x0000000000000000       0x34 /usr/lib/gcc/arm-none-eabi/9.2.1/../../../arm-none-eabi/lib/thumb/v7e-m+fp/hard/libc_nano.a(lib_a-__call_atexit.o)
 .data          0x0000000000000000        0x0 /usr/lib/gcc/arm-none-eabi/9.2.1/../../../arm-none-eabi/lib/thumb/v7e-m+fp/hard/libnosys.a(_exit.o)
 .bss           0x0000000000000000        0x0 /usr/lib/gcc/arm-none-eabi/9.2.1/../../../arm-none-eabi/lib/thumb/v7e-m+fp/hard/libnosys.a(_exit.o)
 .text          0x0000000000000000        0x0 /mnt/d/Marcelo/bitbucket/mcuboot/mcuboot/boot/bootutil/src/boot_record.o
 .data          0x0000000000000000        0x0 /mnt/d/Marcelo/bitbucket/mcuboot/mcuboot/boot/bootutil/src/boot_record.o
 .bss           0x0000000000000000        0x0 /mnt/d/Marcelo/bitbucket/mcuboot/mcuboot/boot/bootutil/src/boot_record.o
 .debug_info    0x0000000000000000      0x902 /mnt/d/Marcelo/bitbucket/mcuboot/mcuboot/boot/bootutil/src/boot_record.o
 .debug_abbrev  0x0000000000000000      0x160 /mnt/d/Marcelo/bitbucket/mcuboot/mcuboot/boot/bootutil/src/boot_record.o
 .debug_aranges
                0x0000000000000000       0x18 /mnt/d/Marcelo/bitbucket/mcuboot/mcuboot/boot/bootutil/src/boot_record.o
 .debug_line    0x0000000000000000       0x8b /mnt/d/Marcelo/bitbucket/mcuboot/mcuboot/boot/bootutil/src/boot_record.o
 .debug_str     0x0000000000000000      0x5fe /mnt/d/Marcelo/bitbucket/mcuboot/mcuboot/boot/bootutil/src/boot_record.o
 .comment       0x0000000000000000       0x5a /mnt/d/Marcelo/bitbucket/mcuboot/mcuboot/boot/bootutil/src/boot_record.o
 .ARM.attributes
                0x0000000000000000       0x39 /mnt/d/Marcelo/bitbucket/mcuboot/mcuboot/boot/bootutil/src/boot_record.o
 .text          0x0000000000000000        0x0 /mnt/d/Marcelo/bitbucket/mcuboot/mcuboot/boot/bootutil/src/bootutil_misc.o
 .data          0x0000000000000000        0x0 /mnt/d/Marcelo/bitbucket/mcuboot/mcuboot/boot/bootutil/src/bootutil_misc.o
 .bss           0x0000000000000000        0x0 /mnt/d/Marcelo/bitbucket/mcuboot/mcuboot/boot/bootutil/src/bootutil_misc.o
 COMMON         0x0000000000000000        0x4 /mnt/d/Marcelo/bitbucket/mcuboot/mcuboot/boot/bootutil/src/bootutil_misc.o
 .text          0x0000000000000000        0x0 /mnt/d/Marcelo/bitbucket/mcuboot/mcuboot/boot/bootutil/src/bootutil_public.o
 .data          0x0000000000000000        0x0 /mnt/d/Marcelo/bitbucket/mcuboot/mcuboot/boot/bootutil/src/bootutil_public.o
 .bss           0x0000000000000000        0x0 /mnt/d/Marcelo/bitbucket/mcuboot/mcuboot/boot/bootutil/src/bootutil_public.o
 .text.boot_swap_type
                0x0000000000000000       0x10 /mnt/d/Marcelo/bitbucket/mcuboot/mcuboot/boot/bootutil/src/bootutil_public.o
 .text.boot_set_pending_multi
                0x0000000000000000       0xe4 /mnt/d/Marcelo/bitbucket/mcuboot/mcuboot/boot/bootutil/src/bootutil_public.o
 .text.boot_set_pending
                0x0000000000000000       0x1a /mnt/d/Marcelo/bitbucket/mcuboot/mcuboot/boot/bootutil/src/bootutil_public.o
 .text.boot_set_confirmed_multi
                0x0000000000000000       0x82 /mnt/d/Marcelo/bitbucket/mcuboot/mcuboot/boot/bootutil/src/bootutil_public.o
 .text.boot_set_confirmed
                0x0000000000000000       0x10 /mnt/d/Marcelo/bitbucket/mcuboot/mcuboot/boot/bootutil/src/bootutil_public.o
 .rodata.__func__.6641
                0x0000000000000000       0x17 /mnt/d/Marcelo/bitbucket/mcuboot/mcuboot/boot/bootutil/src/bootutil_public.o
 .text          0x0000000000000000        0x0 /mnt/d/Marcelo/bitbucket/mcuboot/mcuboot/boot/bootutil/src/caps.o
 .data          0x0000000000000000        0x0 /mnt/d/Marcelo/bitbucket/mcuboot/mcuboot/boot/bootutil/src/caps.o
 .bss           0x0000000000000000        0x0 /mnt/d/Marcelo/bitbucket/mcuboot/mcuboot/boot/bootutil/src/caps.o
 .text.bootutil_get_caps
                0x0000000000000000       0x30 /mnt/d/Marcelo/bitbucket/mcuboot/mcuboot/boot/bootutil/src/caps.o
 .text.bootutil_get_num_images
                0x0000000000000000       0x10 /mnt/d/Marcelo/bitbucket/mcuboot/mcuboot/boot/bootutil/src/caps.o
 .debug_info    0x0000000000000000       0xb4 /mnt/d/Marcelo/bitbucket/mcuboot/mcuboot/boot/bootutil/src/caps.o
 .debug_abbrev  0x0000000000000000       0x82 /mnt/d/Marcelo/bitbucket/mcuboot/mcuboot/boot/bootutil/src/caps.o
 .debug_aranges
                0x0000000000000000       0x28 /mnt/d/Marcelo/bitbucket/mcuboot/mcuboot/boot/bootutil/src/caps.o
 .debug_ranges  0x0000000000000000       0x18 /mnt/d/Marcelo/bitbucket/mcuboot/mcuboot/boot/bootutil/src/caps.o
 .debug_line    0x0000000000000000       0xd6 /mnt/d/Marcelo/bitbucket/mcuboot/mcuboot/boot/bootutil/src/caps.o
 .debug_str     0x0000000000000000      0x1fd /mnt/d/Marcelo/bitbucket/mcuboot/mcuboot/boot/bootutil/src/caps.o
 .comment       0x0000000000000000       0x5a /mnt/d/Marcelo/bitbucket/mcuboot/mcuboot/boot/bootutil/src/caps.o
 .debug_frame   0x0000000000000000       0x58 /mnt/d/Marcelo/bitbucket/mcuboot/mcuboot/boot/bootutil/src/caps.o
 .ARM.attributes
                0x0000000000000000       0x34 /mnt/d/Marcelo/bitbucket/mcuboot/mcuboot/boot/bootutil/src/caps.o
 .text          0x0000000000000000        0x0 /mnt/d/Marcelo/bitbucket/mcuboot/mcuboot/boot/bootutil/src/encrypted.o
 .data          0x0000000000000000        0x0 /mnt/d/Marcelo/bitbucket/mcuboot/mcuboot/boot/bootutil/src/encrypted.o
 .bss           0x0000000000000000        0x0 /mnt/d/Marcelo/bitbucket/mcuboot/mcuboot/boot/bootutil/src/encrypted.o
 .debug_line    0x0000000000000000        0x0 /mnt/d/Marcelo/bitbucket/mcuboot/mcuboot/boot/bootutil/src/encrypted.o
 .debug_str     0x0000000000000000      0x14b /mnt/d/Marcelo/bitbucket/mcuboot/mcuboot/boot/bootutil/src/encrypted.o
 .comment       0x0000000000000000       0x5a /mnt/d/Marcelo/bitbucket/mcuboot/mcuboot/boot/bootutil/src/encrypted.o
 .ARM.attributes
                0x0000000000000000       0x39 /mnt/d/Marcelo/bitbucket/mcuboot/mcuboot/boot/bootutil/src/encrypted.o
 .text          0x0000000000000000        0x0 /mnt/d/Marcelo/bitbucket/mcuboot/mcuboot/boot/bootutil/src/fault_injection_hardening.o
 .data          0x0000000000000000        0x0 /mnt/d/Marcelo/bitbucket/mcuboot/mcuboot/boot/bootutil/src/fault_injection_hardening.o
 .bss           0x0000000000000000        0x0 /mnt/d/Marcelo/bitbucket/mcuboot/mcuboot/boot/bootutil/src/fault_injection_hardening.o
 .text          0x0000000000000000        0x0 /mnt/d/Marcelo/bitbucket/mcuboot/mcuboot/boot/bootutil/src/fault_injection_hardening_delay_rng_mbedtls.o
 .data          0x0000000000000000        0x0 /mnt/d/Marcelo/bitbucket/mcuboot/mcuboot/boot/bootutil/src/fault_injection_hardening_delay_rng_mbedtls.o
 .bss           0x0000000000000000        0x0 /mnt/d/Marcelo/bitbucket/mcuboot/mcuboot/boot/bootutil/src/fault_injection_hardening_delay_rng_mbedtls.o
 .debug_info    0x0000000000000000       0x49 /mnt/d/Marcelo/bitbucket/mcuboot/mcuboot/boot/bootutil/src/fault_injection_hardening_delay_rng_mbedtls.o
 .debug_abbrev  0x0000000000000000       0x3d /mnt/d/Marcelo/bitbucket/mcuboot/mcuboot/boot/bootutil/src/fault_injection_hardening_delay_rng_mbedtls.o
 .debug_aranges
                0x0000000000000000       0x18 /mnt/d/Marcelo/bitbucket/mcuboot/mcuboot/boot/bootutil/src/fault_injection_hardening_delay_rng_mbedtls.o
 .debug_line    0x0000000000000000       0x84 /mnt/d/Marcelo/bitbucket/mcuboot/mcuboot/boot/bootutil/src/fault_injection_hardening_delay_rng_mbedtls.o
 .debug_str     0x0000000000000000      0x18d /mnt/d/Marcelo/bitbucket/mcuboot/mcuboot/boot/bootutil/src/fault_injection_hardening_delay_rng_mbedtls.o
 .comment       0x0000000000000000       0x5a /mnt/d/Marcelo/bitbucket/mcuboot/mcuboot/boot/bootutil/src/fault_injection_hardening_delay_rng_mbedtls.o
 .ARM.attributes
                0x0000000000000000       0x39 /mnt/d/Marcelo/bitbucket/mcuboot/mcuboot/boot/bootutil/src/fault_injection_hardening_delay_rng_mbedtls.o
 .text          0x0000000000000000        0x0 /mnt/d/Marcelo/bitbucket/mcuboot/mcuboot/boot/bootutil/src/image_ec.o
 .data          0x0000000000000000        0x0 /mnt/d/Marcelo/bitbucket/mcuboot/mcuboot/boot/bootutil/src/image_ec.o
 .bss           0x0000000000000000        0x0 /mnt/d/Marcelo/bitbucket/mcuboot/mcuboot/boot/bootutil/src/image_ec.o
 .debug_info    0x0000000000000000      0x902 /mnt/d/Marcelo/bitbucket/mcuboot/mcuboot/boot/bootutil/src/image_ec.o
 .debug_abbrev  0x0000000000000000      0x160 /mnt/d/Marcelo/bitbucket/mcuboot/mcuboot/boot/bootutil/src/image_ec.o
 .debug_aranges
                0x0000000000000000       0x18 /mnt/d/Marcelo/bitbucket/mcuboot/mcuboot/boot/bootutil/src/image_ec.o
 .debug_line    0x0000000000000000       0x8b /mnt/d/Marcelo/bitbucket/mcuboot/mcuboot/boot/bootutil/src/image_ec.o
 .debug_str     0x0000000000000000      0x5fb /mnt/d/Marcelo/bitbucket/mcuboot/mcuboot/boot/bootutil/src/image_ec.o
 .comment       0x0000000000000000       0x5a /mnt/d/Marcelo/bitbucket/mcuboot/mcuboot/boot/bootutil/src/image_ec.o
 .ARM.attributes
                0x0000000000000000       0x39 /mnt/d/Marcelo/bitbucket/mcuboot/mcuboot/boot/bootutil/src/image_ec.o
 .text          0x0000000000000000        0x0 /mnt/d/Marcelo/bitbucket/mcuboot/mcuboot/boot/bootutil/src/image_ec256.o
 .data          0x0000000000000000        0x0 /mnt/d/Marcelo/bitbucket/mcuboot/mcuboot/boot/bootutil/src/image_ec256.o
 .bss           0x0000000000000000        0x0 /mnt/d/Marcelo/bitbucket/mcuboot/mcuboot/boot/bootutil/src/image_ec256.o
 .text          0x0000000000000000        0x0 /mnt/d/Marcelo/bitbucket/mcuboot/mcuboot/boot/bootutil/src/image_ed25519.o
 .data          0x0000000000000000        0x0 /mnt/d/Marcelo/bitbucket/mcuboot/mcuboot/boot/bootutil/src/image_ed25519.o
 .bss           0x0000000000000000        0x0 /mnt/d/Marcelo/bitbucket/mcuboot/mcuboot/boot/bootutil/src/image_ed25519.o
 .debug_info    0x0000000000000000      0x902 /mnt/d/Marcelo/bitbucket/mcuboot/mcuboot/boot/bootutil/src/image_ed25519.o
 .debug_abbrev  0x0000000000000000      0x160 /mnt/d/Marcelo/bitbucket/mcuboot/mcuboot/boot/bootutil/src/image_ed25519.o
 .debug_aranges
                0x0000000000000000       0x18 /mnt/d/Marcelo/bitbucket/mcuboot/mcuboot/boot/bootutil/src/image_ed25519.o
 .debug_line    0x0000000000000000       0x8b /mnt/d/Marcelo/bitbucket/mcuboot/mcuboot/boot/bootutil/src/image_ed25519.o
 .debug_str     0x0000000000000000      0x600 /mnt/d/Marcelo/bitbucket/mcuboot/mcuboot/boot/bootutil/src/image_ed25519.o
 .comment       0x0000000000000000       0x5a /mnt/d/Marcelo/bitbucket/mcuboot/mcuboot/boot/bootutil/src/image_ed25519.o
 .ARM.attributes
                0x0000000000000000       0x39 /mnt/d/Marcelo/bitbucket/mcuboot/mcuboot/boot/bootutil/src/image_ed25519.o
 .text          0x0000000000000000        0x0 /mnt/d/Marcelo/bitbucket/mcuboot/mcuboot/boot/bootutil/src/image_rsa.o
 .data          0x0000000000000000        0x0 /mnt/d/Marcelo/bitbucket/mcuboot/mcuboot/boot/bootutil/src/image_rsa.o
 .bss           0x0000000000000000        0x0 /mnt/d/Marcelo/bitbucket/mcuboot/mcuboot/boot/bootutil/src/image_rsa.o
 .debug_info    0x0000000000000000      0x902 /mnt/d/Marcelo/bitbucket/mcuboot/mcuboot/boot/bootutil/src/image_rsa.o
 .debug_abbrev  0x0000000000000000      0x160 /mnt/d/Marcelo/bitbucket/mcuboot/mcuboot/boot/bootutil/src/image_rsa.o
 .debug_aranges
                0x0000000000000000       0x18 /mnt/d/Marcelo/bitbucket/mcuboot/mcuboot/boot/bootutil/src/image_rsa.o
 .debug_line    0x0000000000000000       0x8b /mnt/d/Marcelo/bitbucket/mcuboot/mcuboot/boot/bootutil/src/image_rsa.o
 .debug_str     0x0000000000000000      0x5fc /mnt/d/Marcelo/bitbucket/mcuboot/mcuboot/boot/bootutil/src/image_rsa.o
 .comment       0x0000000000000000       0x5a /mnt/d/Marcelo/bitbucket/mcuboot/mcuboot/boot/bootutil/src/image_rsa.o
 .ARM.attributes
                0x0000000000000000       0x39 /mnt/d/Marcelo/bitbucket/mcuboot/mcuboot/boot/bootutil/src/image_rsa.o
 .text          0x0000000000000000        0x0 /mnt/d/Marcelo/bitbucket/mcuboot/mcuboot/boot/bootutil/src/image_validate.o
 .data          0x0000000000000000        0x0 /mnt/d/Marcelo/bitbucket/mcuboot/mcuboot/boot/bootutil/src/image_validate.o
 .bss           0x0000000000000000        0x0 /mnt/d/Marcelo/bitbucket/mcuboot/mcuboot/boot/bootutil/src/image_validate.o
 .text          0x0000000000000000        0x0 /mnt/d/Marcelo/bitbucket/mcuboot/mcuboot/boot/bootutil/src/loader.o
 .data          0x0000000000000000        0x0 /mnt/d/Marcelo/bitbucket/mcuboot/mcuboot/boot/bootutil/src/loader.o
 .bss           0x0000000000000000        0x0 /mnt/d/Marcelo/bitbucket/mcuboot/mcuboot/boot/bootutil/src/loader.o
 .text.split_image_check
                0x0000000000000000       0xd8 /mnt/d/Marcelo/bitbucket/mcuboot/mcuboot/boot/bootutil/src/loader.o
 .text.split_go
                0x0000000000000000      0x1e8 /mnt/d/Marcelo/bitbucket/mcuboot/mcuboot/boot/bootutil/src/loader.o
 .bss.tmpbuf.7087
                0x0000000000000000        0x4 /mnt/d/Marcelo/bitbucket/mcuboot/mcuboot/boot/bootutil/src/loader.o
 .rodata.__func__.7228
                0x0000000000000000        0x9 /mnt/d/Marcelo/bitbucket/mcuboot/mcuboot/boot/bootutil/src/loader.o
 .text          0x0000000000000000        0x0 /mnt/d/Marcelo/bitbucket/mcuboot/mcuboot/boot/bootutil/src/swap_misc.o
 .data          0x0000000000000000        0x0 /mnt/d/Marcelo/bitbucket/mcuboot/mcuboot/boot/bootutil/src/swap_misc.o
 .bss           0x0000000000000000        0x0 /mnt/d/Marcelo/bitbucket/mcuboot/mcuboot/boot/bootutil/src/swap_misc.o
 .text          0x0000000000000000        0x0 /mnt/d/Marcelo/bitbucket/mcuboot/mcuboot/boot/bootutil/src/swap_move.o
 .data          0x0000000000000000        0x0 /mnt/d/Marcelo/bitbucket/mcuboot/mcuboot/boot/bootutil/src/swap_move.o
 .bss           0x0000000000000000        0x0 /mnt/d/Marcelo/bitbucket/mcuboot/mcuboot/boot/bootutil/src/swap_move.o
 .debug_info    0x0000000000000000      0x95f /mnt/d/Marcelo/bitbucket/mcuboot/mcuboot/boot/bootutil/src/swap_move.o
 .debug_abbrev  0x0000000000000000      0x173 /mnt/d/Marcelo/bitbucket/mcuboot/mcuboot/boot/bootutil/src/swap_move.o
 .debug_aranges
                0x0000000000000000       0x18 /mnt/d/Marcelo/bitbucket/mcuboot/mcuboot/boot/bootutil/src/swap_move.o
 .debug_line    0x0000000000000000      0x113 /mnt/d/Marcelo/bitbucket/mcuboot/mcuboot/boot/bootutil/src/swap_move.o
 .debug_str     0x0000000000000000      0x63a /mnt/d/Marcelo/bitbucket/mcuboot/mcuboot/boot/bootutil/src/swap_move.o
 .comment       0x0000000000000000       0x5a /mnt/d/Marcelo/bitbucket/mcuboot/mcuboot/boot/bootutil/src/swap_move.o
 .ARM.attributes
                0x0000000000000000       0x39 /mnt/d/Marcelo/bitbucket/mcuboot/mcuboot/boot/bootutil/src/swap_move.o
 .text          0x0000000000000000        0x0 /mnt/d/Marcelo/bitbucket/mcuboot/mcuboot/boot/bootutil/src/swap_scratch.o
 .data          0x0000000000000000        0x0 /mnt/d/Marcelo/bitbucket/mcuboot/mcuboot/boot/bootutil/src/swap_scratch.o
 .bss           0x0000000000000000        0x0 /mnt/d/Marcelo/bitbucket/mcuboot/mcuboot/boot/bootutil/src/swap_scratch.o
 .text          0x0000000000000000        0x0 /mnt/d/Marcelo/bitbucket/mcuboot/mcuboot/boot/bootutil/src/tlv.o
 .data          0x0000000000000000        0x0 /mnt/d/Marcelo/bitbucket/mcuboot/mcuboot/boot/bootutil/src/tlv.o
 .bss           0x0000000000000000        0x0 /mnt/d/Marcelo/bitbucket/mcuboot/mcuboot/boot/bootutil/src/tlv.o
 .text          0x0000000000000000        0x0 mcuboot_main.o
 .data          0x0000000000000000        0x0 mcuboot_main.o
 .bss           0x0000000000000000        0x0 mcuboot_main.o
 .text          0x0000000000000000        0x0 hal/Core/Src/main.o
 .data          0x0000000000000000        0x0 hal/Core/Src/main.o
 .bss           0x0000000000000000        0x0 hal/Core/Src/main.o
 .text          0x0000000000000000        0x0 hal/Core/Src/stm32g4xx_it.o
 .data          0x0000000000000000        0x0 hal/Core/Src/stm32g4xx_it.o
 .bss           0x0000000000000000        0x0 hal/Core/Src/stm32g4xx_it.o
 .text          0x0000000000000000        0x0 hal/Core/Src/stm32g4xx_hal_msp.o
 .data          0x0000000000000000        0x0 hal/Core/Src/stm32g4xx_hal_msp.o
 .bss           0x0000000000000000        0x0 hal/Core/Src/stm32g4xx_hal_msp.o
 .text.HAL_UART_MspDeInit
                0x0000000000000000       0x38 hal/Core/Src/stm32g4xx_hal_msp.o
 .text          0x0000000000000000        0x0 hal/Core/Src/system_stm32g4xx.o
 .data          0x0000000000000000        0x0 hal/Core/Src/system_stm32g4xx.o
 .bss           0x0000000000000000        0x0 hal/Core/Src/system_stm32g4xx.o
 .text.SystemCoreClockUpdate
                0x0000000000000000       0xd4 hal/Core/Src/system_stm32g4xx.o
 .text          0x0000000000000000       0x14 hal/startup_stm32g431xx.o
 .data          0x0000000000000000        0x0 hal/startup_stm32g431xx.o
 .bss           0x0000000000000000        0x0 hal/startup_stm32g431xx.o
 .text          0x0000000000000000        0x0 hal/Drivers/STM32G4xx_HAL_Driver/Src/stm32g4xx_hal_tim.o
 .data          0x0000000000000000        0x0 hal/Drivers/STM32G4xx_HAL_Driver/Src/stm32g4xx_hal_tim.o
 .bss           0x0000000000000000        0x0 hal/Drivers/STM32G4xx_HAL_Driver/Src/stm32g4xx_hal_tim.o
 .debug_info    0x0000000000000000      0x27b hal/Drivers/STM32G4xx_HAL_Driver/Src/stm32g4xx_hal_tim.o
 .debug_abbrev  0x0000000000000000       0xb7 hal/Drivers/STM32G4xx_HAL_Driver/Src/stm32g4xx_hal_tim.o
 .debug_aranges
                0x0000000000000000       0x18 hal/Drivers/STM32G4xx_HAL_Driver/Src/stm32g4xx_hal_tim.o
 .debug_line    0x0000000000000000      0x13e hal/Drivers/STM32G4xx_HAL_Driver/Src/stm32g4xx_hal_tim.o
 .debug_str     0x0000000000000000      0x3e9 hal/Drivers/STM32G4xx_HAL_Driver/Src/stm32g4xx_hal_tim.o
 .comment       0x0000000000000000       0x5a hal/Drivers/STM32G4xx_HAL_Driver/Src/stm32g4xx_hal_tim.o
 .ARM.attributes
                0x0000000000000000       0x39 hal/Drivers/STM32G4xx_HAL_Driver/Src/stm32g4xx_hal_tim.o
 .text          0x0000000000000000        0x0 hal/Drivers/STM32G4xx_HAL_Driver/Src/stm32g4xx_hal_tim_ex.o
 .data          0x0000000000000000        0x0 hal/Drivers/STM32G4xx_HAL_Driver/Src/stm32g4xx_hal_tim_ex.o
 .bss           0x0000000000000000        0x0 hal/Drivers/STM32G4xx_HAL_Driver/Src/stm32g4xx_hal_tim_ex.o
 .debug_info    0x0000000000000000      0x27b hal/Drivers/STM32G4xx_HAL_Driver/Src/stm32g4xx_hal_tim_ex.o
 .debug_abbrev  0x0000000000000000       0xb7 hal/Drivers/STM32G4xx_HAL_Driver/Src/stm32g4xx_hal_tim_ex.o
 .debug_aranges
                0x0000000000000000       0x18 hal/Drivers/STM32G4xx_HAL_Driver/Src/stm32g4xx_hal_tim_ex.o
 .debug_line    0x0000000000000000      0x13e hal/Drivers/STM32G4xx_HAL_Driver/Src/stm32g4xx_hal_tim_ex.o
 .debug_str     0x0000000000000000      0x3ec hal/Drivers/STM32G4xx_HAL_Driver/Src/stm32g4xx_hal_tim_ex.o
 .comment       0x0000000000000000       0x5a hal/Drivers/STM32G4xx_HAL_Driver/Src/stm32g4xx_hal_tim_ex.o
 .ARM.attributes
                0x0000000000000000       0x39 hal/Drivers/STM32G4xx_HAL_Driver/Src/stm32g4xx_hal_tim_ex.o
 .text          0x0000000000000000        0x0 hal/Drivers/STM32G4xx_HAL_Driver/Src/stm32g4xx_hal_pwr_ex.o
 .data          0x0000000000000000        0x0 hal/Drivers/STM32G4xx_HAL_Driver/Src/stm32g4xx_hal_pwr_ex.o
 .bss           0x0000000000000000        0x0 hal/Drivers/STM32G4xx_HAL_Driver/Src/stm32g4xx_hal_pwr_ex.o
 .text.HAL_PWREx_GetVoltageRange
                0x0000000000000000       0x40 hal/Drivers/STM32G4xx_HAL_Driver/Src/stm32g4xx_hal_pwr_ex.o
 .text.HAL_PWREx_EnableBatteryCharging
                0x0000000000000000       0x34 hal/Drivers/STM32G4xx_HAL_Driver/Src/stm32g4xx_hal_pwr_ex.o
 .text.HAL_PWREx_DisableBatteryCharging
                0x0000000000000000       0x20 hal/Drivers/STM32G4xx_HAL_Driver/Src/stm32g4xx_hal_pwr_ex.o
 .text.HAL_PWREx_EnableInternalWakeUpLine
                0x0000000000000000       0x20 hal/Drivers/STM32G4xx_HAL_Driver/Src/stm32g4xx_hal_pwr_ex.o
 .text.HAL_PWREx_DisableInternalWakeUpLine
                0x0000000000000000       0x20 hal/Drivers/STM32G4xx_HAL_Driver/Src/stm32g4xx_hal_pwr_ex.o
 .text.HAL_PWREx_EnableGPIOPullUp
                0x0000000000000000      0x12c hal/Drivers/STM32G4xx_HAL_Driver/Src/stm32g4xx_hal_pwr_ex.o
 .text.HAL_PWREx_DisableGPIOPullUp
                0x0000000000000000       0xd0 hal/Drivers/STM32G4xx_HAL_Driver/Src/stm32g4xx_hal_pwr_ex.o
 .text.HAL_PWREx_EnableGPIOPullDown
                0x0000000000000000      0x12c hal/Drivers/STM32G4xx_HAL_Driver/Src/stm32g4xx_hal_pwr_ex.o
 .text.HAL_PWREx_DisableGPIOPullDown
                0x0000000000000000       0xc8 hal/Drivers/STM32G4xx_HAL_Driver/Src/stm32g4xx_hal_pwr_ex.o
 .text.HAL_PWREx_EnablePullUpPullDownConfig
                0x0000000000000000       0x20 hal/Drivers/STM32G4xx_HAL_Driver/Src/stm32g4xx_hal_pwr_ex.o
 .text.HAL_PWREx_DisablePullUpPullDownConfig
                0x0000000000000000       0x20 hal/Drivers/STM32G4xx_HAL_Driver/Src/stm32g4xx_hal_pwr_ex.o
 .text.HAL_PWREx_EnableSRAM2ContentRetention
                0x0000000000000000       0x20 hal/Drivers/STM32G4xx_HAL_Driver/Src/stm32g4xx_hal_pwr_ex.o
 .text.HAL_PWREx_DisableSRAM2ContentRetention
                0x0000000000000000       0x20 hal/Drivers/STM32G4xx_HAL_Driver/Src/stm32g4xx_hal_pwr_ex.o
 .text.HAL_PWREx_EnablePVM1
                0x0000000000000000       0x20 hal/Drivers/STM32G4xx_HAL_Driver/Src/stm32g4xx_hal_pwr_ex.o
 .text.HAL_PWREx_DisablePVM1
                0x0000000000000000       0x20 hal/Drivers/STM32G4xx_HAL_Driver/Src/stm32g4xx_hal_pwr_ex.o
 .text.HAL_PWREx_EnablePVM2
                0x0000000000000000       0x20 hal/Drivers/STM32G4xx_HAL_Driver/Src/stm32g4xx_hal_pwr_ex.o
 .text.HAL_PWREx_DisablePVM2
                0x0000000000000000       0x20 hal/Drivers/STM32G4xx_HAL_Driver/Src/stm32g4xx_hal_pwr_ex.o
 .text.HAL_PWREx_EnablePVM3
                0x0000000000000000       0x20 hal/Drivers/STM32G4xx_HAL_Driver/Src/stm32g4xx_hal_pwr_ex.o
 .text.HAL_PWREx_DisablePVM3
                0x0000000000000000       0x20 hal/Drivers/STM32G4xx_HAL_Driver/Src/stm32g4xx_hal_pwr_ex.o
 .text.HAL_PWREx_EnablePVM4
                0x0000000000000000       0x20 hal/Drivers/STM32G4xx_HAL_Driver/Src/stm32g4xx_hal_pwr_ex.o
 .text.HAL_PWREx_DisablePVM4
                0x0000000000000000       0x20 hal/Drivers/STM32G4xx_HAL_Driver/Src/stm32g4xx_hal_pwr_ex.o
 .text.HAL_PWREx_ConfigPVM
                0x0000000000000000      0x2a4 hal/Drivers/STM32G4xx_HAL_Driver/Src/stm32g4xx_hal_pwr_ex.o
 .text.HAL_PWREx_EnableLowPowerRunMode
                0x0000000000000000       0x20 hal/Drivers/STM32G4xx_HAL_Driver/Src/stm32g4xx_hal_pwr_ex.o
 .text.HAL_PWREx_DisableLowPowerRunMode
                0x0000000000000000       0x70 hal/Drivers/STM32G4xx_HAL_Driver/Src/stm32g4xx_hal_pwr_ex.o
 .text.HAL_PWREx_EnterSTOP0Mode
                0x0000000000000000       0x54 hal/Drivers/STM32G4xx_HAL_Driver/Src/stm32g4xx_hal_pwr_ex.o
 .text.HAL_PWREx_EnterSTOP1Mode
                0x0000000000000000       0x58 hal/Drivers/STM32G4xx_HAL_Driver/Src/stm32g4xx_hal_pwr_ex.o
 .text.HAL_PWREx_EnterSHUTDOWNMode
                0x0000000000000000       0x34 hal/Drivers/STM32G4xx_HAL_Driver/Src/stm32g4xx_hal_pwr_ex.o
 .text.HAL_PWREx_PVD_PVM_IRQHandler
                0x0000000000000000       0x7c hal/Drivers/STM32G4xx_HAL_Driver/Src/stm32g4xx_hal_pwr_ex.o
 .text.HAL_PWREx_PVM1Callback
                0x0000000000000000        0xe hal/Drivers/STM32G4xx_HAL_Driver/Src/stm32g4xx_hal_pwr_ex.o
 .text.HAL_PWREx_PVM2Callback
                0x0000000000000000        0xe hal/Drivers/STM32G4xx_HAL_Driver/Src/stm32g4xx_hal_pwr_ex.o
 .text.HAL_PWREx_PVM3Callback
                0x0000000000000000        0xe hal/Drivers/STM32G4xx_HAL_Driver/Src/stm32g4xx_hal_pwr_ex.o
 .text.HAL_PWREx_PVM4Callback
                0x0000000000000000        0xe hal/Drivers/STM32G4xx_HAL_Driver/Src/stm32g4xx_hal_pwr_ex.o
 .text.HAL_PWREx_EnableUCPDStandbyMode
                0x0000000000000000       0x20 hal/Drivers/STM32G4xx_HAL_Driver/Src/stm32g4xx_hal_pwr_ex.o
 .text.HAL_PWREx_DisableUCPDStandbyMode
                0x0000000000000000       0x20 hal/Drivers/STM32G4xx_HAL_Driver/Src/stm32g4xx_hal_pwr_ex.o
 .text.HAL_PWREx_EnableUCPDDeadBattery
                0x0000000000000000       0x20 hal/Drivers/STM32G4xx_HAL_Driver/Src/stm32g4xx_hal_pwr_ex.o
 .text          0x0000000000000000        0x0 hal/Drivers/STM32G4xx_HAL_Driver/Src/stm32g4xx_hal_uart.o
 .data          0x0000000000000000        0x0 hal/Drivers/STM32G4xx_HAL_Driver/Src/stm32g4xx_hal_uart.o
 .bss           0x0000000000000000        0x0 hal/Drivers/STM32G4xx_HAL_Driver/Src/stm32g4xx_hal_uart.o
 .text.HAL_HalfDuplex_Init
                0x0000000000000000       0xb0 hal/Drivers/STM32G4xx_HAL_Driver/Src/stm32g4xx_hal_uart.o
 .text.HAL_LIN_Init
                0x0000000000000000       0xe0 hal/Drivers/STM32G4xx_HAL_Driver/Src/stm32g4xx_hal_uart.o
 .text.HAL_MultiProcessor_Init
                0x0000000000000000       0xd8 hal/Drivers/STM32G4xx_HAL_Driver/Src/stm32g4xx_hal_uart.o
 .text.HAL_UART_DeInit
                0x0000000000000000       0x78 hal/Drivers/STM32G4xx_HAL_Driver/Src/stm32g4xx_hal_uart.o
 .text.HAL_UART_MspInit
                0x0000000000000000       0x14 hal/Drivers/STM32G4xx_HAL_Driver/Src/stm32g4xx_hal_uart.o
 .text.HAL_UART_MspDeInit
                0x0000000000000000       0x14 hal/Drivers/STM32G4xx_HAL_Driver/Src/stm32g4xx_hal_uart.o
 .text.HAL_UART_Transmit
                0x0000000000000000      0x12c hal/Drivers/STM32G4xx_HAL_Driver/Src/stm32g4xx_hal_uart.o
 .text.HAL_UART_Receive
                0x0000000000000000      0x1a6 hal/Drivers/STM32G4xx_HAL_Driver/Src/stm32g4xx_hal_uart.o
 .text.HAL_UART_Transmit_IT
                0x0000000000000000      0x108 hal/Drivers/STM32G4xx_HAL_Driver/Src/stm32g4xx_hal_uart.o
 .text.HAL_UART_Receive_IT
                0x0000000000000000       0x8c hal/Drivers/STM32G4xx_HAL_Driver/Src/stm32g4xx_hal_uart.o
 .text.HAL_UART_Transmit_DMA
                0x0000000000000000      0x100 hal/Drivers/STM32G4xx_HAL_Driver/Src/stm32g4xx_hal_uart.o
 .text.HAL_UART_Receive_DMA
                0x0000000000000000       0x8c hal/Drivers/STM32G4xx_HAL_Driver/Src/stm32g4xx_hal_uart.o
 .text.HAL_UART_DMAPause
                0x0000000000000000       0xac hal/Drivers/STM32G4xx_HAL_Driver/Src/stm32g4xx_hal_uart.o
 .text.HAL_UART_DMAResume
                0x0000000000000000       0x90 hal/Drivers/STM32G4xx_HAL_Driver/Src/stm32g4xx_hal_uart.o
 .text.HAL_UART_DMAStop
                0x0000000000000000       0xde hal/Drivers/STM32G4xx_HAL_Driver/Src/stm32g4xx_hal_uart.o
 .text.HAL_UART_Abort
                0x0000000000000000      0x162 hal/Drivers/STM32G4xx_HAL_Driver/Src/stm32g4xx_hal_uart.o
 .text.HAL_UART_AbortTransmit
                0x0000000000000000       0xb6 hal/Drivers/STM32G4xx_HAL_Driver/Src/stm32g4xx_hal_uart.o
 .text.HAL_UART_AbortReceive
                0x0000000000000000       0xd6 hal/Drivers/STM32G4xx_HAL_Driver/Src/stm32g4xx_hal_uart.o
 .text.HAL_UART_Abort_IT
                0x0000000000000000      0x1b0 hal/Drivers/STM32G4xx_HAL_Driver/Src/stm32g4xx_hal_uart.o
 .text.HAL_UART_AbortTransmit_IT
                0x0000000000000000       0xd8 hal/Drivers/STM32G4xx_HAL_Driver/Src/stm32g4xx_hal_uart.o
 .text.HAL_UART_AbortReceive_IT
                0x0000000000000000      0x108 hal/Drivers/STM32G4xx_HAL_Driver/Src/stm32g4xx_hal_uart.o
 .text.HAL_UART_IRQHandler
                0x0000000000000000      0x468 hal/Drivers/STM32G4xx_HAL_Driver/Src/stm32g4xx_hal_uart.o
 .text.HAL_UART_TxCpltCallback
                0x0000000000000000       0x14 hal/Drivers/STM32G4xx_HAL_Driver/Src/stm32g4xx_hal_uart.o
 .text.HAL_UART_TxHalfCpltCallback
                0x0000000000000000       0x14 hal/Drivers/STM32G4xx_HAL_Driver/Src/stm32g4xx_hal_uart.o
 .text.HAL_UART_RxCpltCallback
                0x0000000000000000       0x14 hal/Drivers/STM32G4xx_HAL_Driver/Src/stm32g4xx_hal_uart.o
 .text.HAL_UART_RxHalfCpltCallback
                0x0000000000000000       0x14 hal/Drivers/STM32G4xx_HAL_Driver/Src/stm32g4xx_hal_uart.o
 .text.HAL_UART_ErrorCallback
                0x0000000000000000       0x14 hal/Drivers/STM32G4xx_HAL_Driver/Src/stm32g4xx_hal_uart.o
 .text.HAL_UART_AbortCpltCallback
                0x0000000000000000       0x14 hal/Drivers/STM32G4xx_HAL_Driver/Src/stm32g4xx_hal_uart.o
 .text.HAL_UART_AbortTransmitCpltCallback
                0x0000000000000000       0x14 hal/Drivers/STM32G4xx_HAL_Driver/Src/stm32g4xx_hal_uart.o
 .text.HAL_UART_AbortReceiveCpltCallback
                0x0000000000000000       0x14 hal/Drivers/STM32G4xx_HAL_Driver/Src/stm32g4xx_hal_uart.o
 .text.HAL_UARTEx_RxEventCallback
                0x0000000000000000       0x18 hal/Drivers/STM32G4xx_HAL_Driver/Src/stm32g4xx_hal_uart.o
 .text.HAL_UART_ReceiverTimeout_Config
                0x0000000000000000       0x38 hal/Drivers/STM32G4xx_HAL_Driver/Src/stm32g4xx_hal_uart.o
 .text.HAL_UART_EnableReceiverTimeout
                0x0000000000000000       0x74 hal/Drivers/STM32G4xx_HAL_Driver/Src/stm32g4xx_hal_uart.o
 .text.HAL_UART_DisableReceiverTimeout
                0x0000000000000000       0x74 hal/Drivers/STM32G4xx_HAL_Driver/Src/stm32g4xx_hal_uart.o
 .text.HAL_MultiProcessor_EnableMuteMode
                0x0000000000000000       0x4e hal/Drivers/STM32G4xx_HAL_Driver/Src/stm32g4xx_hal_uart.o
 .text.HAL_MultiProcessor_DisableMuteMode
                0x0000000000000000       0x4e hal/Drivers/STM32G4xx_HAL_Driver/Src/stm32g4xx_hal_uart.o
 .text.HAL_MultiProcessor_EnterMuteMode
                0x0000000000000000       0x24 hal/Drivers/STM32G4xx_HAL_Driver/Src/stm32g4xx_hal_uart.o
 .text.HAL_HalfDuplex_EnableTransmitter
                0x0000000000000000       0x64 hal/Drivers/STM32G4xx_HAL_Driver/Src/stm32g4xx_hal_uart.o
 .text.HAL_HalfDuplex_EnableReceiver
                0x0000000000000000       0x64 hal/Drivers/STM32G4xx_HAL_Driver/Src/stm32g4xx_hal_uart.o
 .text.HAL_LIN_SendBreak
                0x0000000000000000       0x54 hal/Drivers/STM32G4xx_HAL_Driver/Src/stm32g4xx_hal_uart.o
 .text.HAL_UART_GetState
                0x0000000000000000       0x2a hal/Drivers/STM32G4xx_HAL_Driver/Src/stm32g4xx_hal_uart.o
 .text.HAL_UART_GetError
                0x0000000000000000       0x1a hal/Drivers/STM32G4xx_HAL_Driver/Src/stm32g4xx_hal_uart.o
 .text.UART_Start_Receive_IT
                0x0000000000000000      0x17c hal/Drivers/STM32G4xx_HAL_Driver/Src/stm32g4xx_hal_uart.o
 .text.UART_Start_Receive_DMA
                0x0000000000000000       0xdc hal/Drivers/STM32G4xx_HAL_Driver/Src/stm32g4xx_hal_uart.o
 .text.UART_EndTxTransfer
                0x0000000000000000       0x3c hal/Drivers/STM32G4xx_HAL_Driver/Src/stm32g4xx_hal_uart.o
 .text.UART_EndRxTransfer
                0x0000000000000000       0x64 hal/Drivers/STM32G4xx_HAL_Driver/Src/stm32g4xx_hal_uart.o
 .text.UART_DMATransmitCplt
                0x0000000000000000       0x54 hal/Drivers/STM32G4xx_HAL_Driver/Src/stm32g4xx_hal_uart.o
 .text.UART_DMATxHalfCplt
                0x0000000000000000       0x1c hal/Drivers/STM32G4xx_HAL_Driver/Src/stm32g4xx_hal_uart.o
 .text.UART_DMAReceiveCplt
                0x0000000000000000       0x9a hal/Drivers/STM32G4xx_HAL_Driver/Src/stm32g4xx_hal_uart.o
 .text.UART_DMARxHalfCplt
                0x0000000000000000       0x38 hal/Drivers/STM32G4xx_HAL_Driver/Src/stm32g4xx_hal_uart.o
 .text.UART_DMAError
                0x0000000000000000       0x80 hal/Drivers/STM32G4xx_HAL_Driver/Src/stm32g4xx_hal_uart.o
 .text.UART_DMAAbortOnError
                0x0000000000000000       0x2c hal/Drivers/STM32G4xx_HAL_Driver/Src/stm32g4xx_hal_uart.o
 .text.UART_DMATxAbortCallback
                0x0000000000000000       0x88 hal/Drivers/STM32G4xx_HAL_Driver/Src/stm32g4xx_hal_uart.o
 .text.UART_DMARxAbortCallback
                0x0000000000000000       0x7e hal/Drivers/STM32G4xx_HAL_Driver/Src/stm32g4xx_hal_uart.o
 .text.UART_DMATxOnlyAbortCallback
                0x0000000000000000       0x46 hal/Drivers/STM32G4xx_HAL_Driver/Src/stm32g4xx_hal_uart.o
 .text.UART_DMARxOnlyAbortCallback
                0x0000000000000000       0x4a hal/Drivers/STM32G4xx_HAL_Driver/Src/stm32g4xx_hal_uart.o
 .text.UART_TxISR_8BIT
                0x0000000000000000       0x74 hal/Drivers/STM32G4xx_HAL_Driver/Src/stm32g4xx_hal_uart.o
 .text.UART_TxISR_16BIT
                0x0000000000000000       0x7e hal/Drivers/STM32G4xx_HAL_Driver/Src/stm32g4xx_hal_uart.o
 .text.UART_TxISR_8BIT_FIFOEN
                0x0000000000000000       0x9a hal/Drivers/STM32G4xx_HAL_Driver/Src/stm32g4xx_hal_uart.o
 .text.UART_TxISR_16BIT_FIFOEN
                0x0000000000000000       0xa4 hal/Drivers/STM32G4xx_HAL_Driver/Src/stm32g4xx_hal_uart.o
 .text.UART_EndTransmit_IT
                0x0000000000000000       0x34 hal/Drivers/STM32G4xx_HAL_Driver/Src/stm32g4xx_hal_uart.o
 .text.UART_RxISR_8BIT
                0x0000000000000000       0xd8 hal/Drivers/STM32G4xx_HAL_Driver/Src/stm32g4xx_hal_uart.o
 .text.UART_RxISR_16BIT
                0x0000000000000000       0xd8 hal/Drivers/STM32G4xx_HAL_Driver/Src/stm32g4xx_hal_uart.o
 .text.UART_RxISR_8BIT_FIFOEN
                0x0000000000000000      0x204 hal/Drivers/STM32G4xx_HAL_Driver/Src/stm32g4xx_hal_uart.o
 .text.UART_RxISR_16BIT_FIFOEN
                0x0000000000000000      0x204 hal/Drivers/STM32G4xx_HAL_Driver/Src/stm32g4xx_hal_uart.o
 .text          0x0000000000000000        0x0 hal/Drivers/STM32G4xx_HAL_Driver/Src/stm32g4xx_hal_uart_ex.o
 .data          0x0000000000000000        0x0 hal/Drivers/STM32G4xx_HAL_Driver/Src/stm32g4xx_hal_uart_ex.o
 .bss           0x0000000000000000        0x0 hal/Drivers/STM32G4xx_HAL_Driver/Src/stm32g4xx_hal_uart_ex.o
 .text.HAL_RS485Ex_Init
                0x0000000000000000       0xd2 hal/Drivers/STM32G4xx_HAL_Driver/Src/stm32g4xx_hal_uart_ex.o
 .text.HAL_UARTEx_WakeupCallback
                0x0000000000000000       0x14 hal/Drivers/STM32G4xx_HAL_Driver/Src/stm32g4xx_hal_uart_ex.o
 .text.HAL_UARTEx_RxFifoFullCallback
                0x0000000000000000       0x14 hal/Drivers/STM32G4xx_HAL_Driver/Src/stm32g4xx_hal_uart_ex.o
 .text.HAL_UARTEx_TxFifoEmptyCallback
                0x0000000000000000       0x14 hal/Drivers/STM32G4xx_HAL_Driver/Src/stm32g4xx_hal_uart_ex.o
 .text.HAL_MultiProcessorEx_AddressLength_Set
                0x0000000000000000       0x60 hal/Drivers/STM32G4xx_HAL_Driver/Src/stm32g4xx_hal_uart_ex.o
 .text.HAL_UARTEx_StopModeWakeUpSourceConfig
                0x0000000000000000       0xb6 hal/Drivers/STM32G4xx_HAL_Driver/Src/stm32g4xx_hal_uart_ex.o
 .text.HAL_UARTEx_EnableStopMode
                0x0000000000000000       0x44 hal/Drivers/STM32G4xx_HAL_Driver/Src/stm32g4xx_hal_uart_ex.o
 .text.HAL_UARTEx_DisableStopMode
                0x0000000000000000       0x44 hal/Drivers/STM32G4xx_HAL_Driver/Src/stm32g4xx_hal_uart_ex.o
 .text.HAL_UARTEx_EnableFifoMode
                0x0000000000000000       0x76 hal/Drivers/STM32G4xx_HAL_Driver/Src/stm32g4xx_hal_uart_ex.o
 .text.HAL_UARTEx_ReceiveToIdle
                0x0000000000000000      0x216 hal/Drivers/STM32G4xx_HAL_Driver/Src/stm32g4xx_hal_uart_ex.o
 .text.HAL_UARTEx_ReceiveToIdle_IT
                0x0000000000000000       0x8e hal/Drivers/STM32G4xx_HAL_Driver/Src/stm32g4xx_hal_uart_ex.o
 .text.HAL_UARTEx_ReceiveToIdle_DMA
                0x0000000000000000       0x8e hal/Drivers/STM32G4xx_HAL_Driver/Src/stm32g4xx_hal_uart_ex.o
 .text.UARTEx_Wakeup_AddressConfig
                0x0000000000000000       0x46 hal/Drivers/STM32G4xx_HAL_Driver/Src/stm32g4xx_hal_uart_ex.o
 .text          0x0000000000000000        0x0 hal/Drivers/STM32G4xx_HAL_Driver/Src/stm32g4xx_hal.o
 .data          0x0000000000000000        0x0 hal/Drivers/STM32G4xx_HAL_Driver/Src/stm32g4xx_hal.o
 .bss           0x0000000000000000        0x0 hal/Drivers/STM32G4xx_HAL_Driver/Src/stm32g4xx_hal.o
 .text.HAL_DeInit
                0x0000000000000000       0x58 hal/Drivers/STM32G4xx_HAL_Driver/Src/stm32g4xx_hal.o
 .text.HAL_MspInit
                0x0000000000000000        0xe hal/Drivers/STM32G4xx_HAL_Driver/Src/stm32g4xx_hal.o
 .text.HAL_MspDeInit
                0x0000000000000000        0xe hal/Drivers/STM32G4xx_HAL_Driver/Src/stm32g4xx_hal.o
 .text.HAL_GetTickPrio
                0x0000000000000000       0x18 hal/Drivers/STM32G4xx_HAL_Driver/Src/stm32g4xx_hal.o
 .text.HAL_SetTickFreq
                0x0000000000000000       0x50 hal/Drivers/STM32G4xx_HAL_Driver/Src/stm32g4xx_hal.o
 .text.HAL_GetTickFreq
                0x0000000000000000       0x18 hal/Drivers/STM32G4xx_HAL_Driver/Src/stm32g4xx_hal.o
 .text.HAL_Delay
                0x0000000000000000       0x44 hal/Drivers/STM32G4xx_HAL_Driver/Src/stm32g4xx_hal.o
 .text.HAL_SuspendTick
                0x0000000000000000       0x20 hal/Drivers/STM32G4xx_HAL_Driver/Src/stm32g4xx_hal.o
 .text.HAL_ResumeTick
                0x0000000000000000       0x20 hal/Drivers/STM32G4xx_HAL_Driver/Src/stm32g4xx_hal.o
 .text.HAL_GetHalVersion
                0x0000000000000000       0x14 hal/Drivers/STM32G4xx_HAL_Driver/Src/stm32g4xx_hal.o
 .text.HAL_GetREVID
                0x0000000000000000       0x1c hal/Drivers/STM32G4xx_HAL_Driver/Src/stm32g4xx_hal.o
 .text.HAL_GetDEVID
                0x0000000000000000       0x1c hal/Drivers/STM32G4xx_HAL_Driver/Src/stm32g4xx_hal.o
 .text.HAL_DBGMCU_EnableDBGSleepMode
                0x0000000000000000       0x20 hal/Drivers/STM32G4xx_HAL_Driver/Src/stm32g4xx_hal.o
 .text.HAL_DBGMCU_DisableDBGSleepMode
                0x0000000000000000       0x20 hal/Drivers/STM32G4xx_HAL_Driver/Src/stm32g4xx_hal.o
 .text.HAL_DBGMCU_EnableDBGStopMode
                0x0000000000000000       0x20 hal/Drivers/STM32G4xx_HAL_Driver/Src/stm32g4xx_hal.o
 .text.HAL_DBGMCU_DisableDBGStopMode
                0x0000000000000000       0x20 hal/Drivers/STM32G4xx_HAL_Driver/Src/stm32g4xx_hal.o
 .text.HAL_DBGMCU_EnableDBGStandbyMode
                0x0000000000000000       0x20 hal/Drivers/STM32G4xx_HAL_Driver/Src/stm32g4xx_hal.o
 .text.HAL_DBGMCU_DisableDBGStandbyMode
                0x0000000000000000       0x20 hal/Drivers/STM32G4xx_HAL_Driver/Src/stm32g4xx_hal.o
 .text.HAL_SYSCFG_CCMSRAMErase
                0x0000000000000000       0x2c hal/Drivers/STM32G4xx_HAL_Driver/Src/stm32g4xx_hal.o
 .text.HAL_SYSCFG_EnableMemorySwappingBank
                0x0000000000000000       0x20 hal/Drivers/STM32G4xx_HAL_Driver/Src/stm32g4xx_hal.o
 .text.HAL_SYSCFG_DisableMemorySwappingBank
                0x0000000000000000       0x20 hal/Drivers/STM32G4xx_HAL_Driver/Src/stm32g4xx_hal.o
 .text.HAL_SYSCFG_VREFBUF_VoltageScalingConfig
                0x0000000000000000       0x28 hal/Drivers/STM32G4xx_HAL_Driver/Src/stm32g4xx_hal.o
 .text.HAL_SYSCFG_VREFBUF_HighImpedanceConfig
                0x0000000000000000       0x28 hal/Drivers/STM32G4xx_HAL_Driver/Src/stm32g4xx_hal.o
 .text.HAL_SYSCFG_VREFBUF_TrimmingConfig
                0x0000000000000000       0x28 hal/Drivers/STM32G4xx_HAL_Driver/Src/stm32g4xx_hal.o
 .text.HAL_SYSCFG_EnableVREFBUF
                0x0000000000000000       0x48 hal/Drivers/STM32G4xx_HAL_Driver/Src/stm32g4xx_hal.o
 .text.HAL_SYSCFG_DisableVREFBUF
                0x0000000000000000       0x20 hal/Drivers/STM32G4xx_HAL_Driver/Src/stm32g4xx_hal.o
 .text.HAL_SYSCFG_EnableIOSwitchBooster
                0x0000000000000000       0x20 hal/Drivers/STM32G4xx_HAL_Driver/Src/stm32g4xx_hal.o
 .text.HAL_SYSCFG_DisableIOSwitchBooster
                0x0000000000000000       0x20 hal/Drivers/STM32G4xx_HAL_Driver/Src/stm32g4xx_hal.o
 .text.HAL_SYSCFG_EnableIOSwitchVDD
                0x0000000000000000       0x20 hal/Drivers/STM32G4xx_HAL_Driver/Src/stm32g4xx_hal.o
 .text.HAL_SYSCFG_DisableIOSwitchVDD
                0x0000000000000000       0x20 hal/Drivers/STM32G4xx_HAL_Driver/Src/stm32g4xx_hal.o
 .text.HAL_SYSCFG_CCMSRAM_WriteProtectionEnable
                0x0000000000000000       0x24 hal/Drivers/STM32G4xx_HAL_Driver/Src/stm32g4xx_hal.o
 .text          0x0000000000000000        0x0 hal/Drivers/STM32G4xx_HAL_Driver/Src/stm32g4xx_hal_rcc.o
 .data          0x0000000000000000        0x0 hal/Drivers/STM32G4xx_HAL_Driver/Src/stm32g4xx_hal_rcc.o
 .bss           0x0000000000000000        0x0 hal/Drivers/STM32G4xx_HAL_Driver/Src/stm32g4xx_hal_rcc.o
 .text.HAL_RCC_DeInit
                0x0000000000000000      0x104 hal/Drivers/STM32G4xx_HAL_Driver/Src/stm32g4xx_hal_rcc.o
 .text.HAL_RCC_MCOConfig
                0x0000000000000000       0x68 hal/Drivers/STM32G4xx_HAL_Driver/Src/stm32g4xx_hal_rcc.o
 .text.HAL_RCC_GetOscConfig
                0x0000000000000000      0x164 hal/Drivers/STM32G4xx_HAL_Driver/Src/stm32g4xx_hal_rcc.o
 .text.HAL_RCC_GetClockConfig
                0x0000000000000000       0x64 hal/Drivers/STM32G4xx_HAL_Driver/Src/stm32g4xx_hal_rcc.o
 .text.HAL_RCC_EnableCSS
                0x0000000000000000       0x20 hal/Drivers/STM32G4xx_HAL_Driver/Src/stm32g4xx_hal_rcc.o
 .text.HAL_RCC_EnableLSECSS
                0x0000000000000000       0x24 hal/Drivers/STM32G4xx_HAL_Driver/Src/stm32g4xx_hal_rcc.o
 .text.HAL_RCC_DisableLSECSS
                0x0000000000000000       0x24 hal/Drivers/STM32G4xx_HAL_Driver/Src/stm32g4xx_hal_rcc.o
 .text.HAL_RCC_NMI_IRQHandler
                0x0000000000000000       0x28 hal/Drivers/STM32G4xx_HAL_Driver/Src/stm32g4xx_hal_rcc.o
 .text.HAL_RCC_CSSCallback
                0x0000000000000000        0xe hal/Drivers/STM32G4xx_HAL_Driver/Src/stm32g4xx_hal_rcc.o
 .text          0x0000000000000000        0x0 hal/Drivers/STM32G4xx_HAL_Driver/Src/stm32g4xx_hal_rcc_ex.o
 .data          0x0000000000000000        0x0 hal/Drivers/STM32G4xx_HAL_Driver/Src/stm32g4xx_hal_rcc_ex.o
 .bss           0x0000000000000000        0x0 hal/Drivers/STM32G4xx_HAL_Driver/Src/stm32g4xx_hal_rcc_ex.o
 .text.HAL_RCCEx_GetPeriphCLKConfig
                0x0000000000000000      0x104 hal/Drivers/STM32G4xx_HAL_Driver/Src/stm32g4xx_hal_rcc_ex.o
 .text.HAL_RCCEx_GetPeriphCLKFreq
                0x0000000000000000      0x8a0 hal/Drivers/STM32G4xx_HAL_Driver/Src/stm32g4xx_hal_rcc_ex.o
 .text.HAL_RCCEx_EnableLSECSS
                0x0000000000000000       0x24 hal/Drivers/STM32G4xx_HAL_Driver/Src/stm32g4xx_hal_rcc_ex.o
 .text.HAL_RCCEx_DisableLSECSS
                0x0000000000000000       0x30 hal/Drivers/STM32G4xx_HAL_Driver/Src/stm32g4xx_hal_rcc_ex.o
 .text.HAL_RCCEx_EnableLSECSS_IT
                0x0000000000000000       0x4c hal/Drivers/STM32G4xx_HAL_Driver/Src/stm32g4xx_hal_rcc_ex.o
 .text.HAL_RCCEx_LSECSS_IRQHandler
                0x0000000000000000       0x28 hal/Drivers/STM32G4xx_HAL_Driver/Src/stm32g4xx_hal_rcc_ex.o
 .text.HAL_RCCEx_LSECSS_Callback
                0x0000000000000000        0xe hal/Drivers/STM32G4xx_HAL_Driver/Src/stm32g4xx_hal_rcc_ex.o
 .text.HAL_RCCEx_EnableLSCO
                0x0000000000000000       0xd4 hal/Drivers/STM32G4xx_HAL_Driver/Src/stm32g4xx_hal_rcc_ex.o
 .text.HAL_RCCEx_DisableLSCO
                0x0000000000000000       0x88 hal/Drivers/STM32G4xx_HAL_Driver/Src/stm32g4xx_hal_rcc_ex.o
 .text.HAL_RCCEx_CRSConfig
                0x0000000000000000       0x84 hal/Drivers/STM32G4xx_HAL_Driver/Src/stm32g4xx_hal_rcc_ex.o
 .text.HAL_RCCEx_CRSSoftwareSynchronizationGenerate
                0x0000000000000000       0x20 hal/Drivers/STM32G4xx_HAL_Driver/Src/stm32g4xx_hal_rcc_ex.o
 .text.HAL_RCCEx_CRSGetSynchronizationInfo
                0x0000000000000000       0x48 hal/Drivers/STM32G4xx_HAL_Driver/Src/stm32g4xx_hal_rcc_ex.o
 .text.HAL_RCCEx_CRSWaitSynchronization
                0x0000000000000000       0xe4 hal/Drivers/STM32G4xx_HAL_Driver/Src/stm32g4xx_hal_rcc_ex.o
 .text.HAL_RCCEx_CRS_IRQHandler
                0x0000000000000000       0xdc hal/Drivers/STM32G4xx_HAL_Driver/Src/stm32g4xx_hal_rcc_ex.o
 .text.HAL_RCCEx_CRS_SyncOkCallback
                0x0000000000000000        0xe hal/Drivers/STM32G4xx_HAL_Driver/Src/stm32g4xx_hal_rcc_ex.o
 .text.HAL_RCCEx_CRS_SyncWarnCallback
                0x0000000000000000        0xe hal/Drivers/STM32G4xx_HAL_Driver/Src/stm32g4xx_hal_rcc_ex.o
 .text.HAL_RCCEx_CRS_ExpectedSyncCallback
                0x0000000000000000        0xe hal/Drivers/STM32G4xx_HAL_Driver/Src/stm32g4xx_hal_rcc_ex.o
 .text.HAL_RCCEx_CRS_ErrorCallback
                0x0000000000000000       0x14 hal/Drivers/STM32G4xx_HAL_Driver/Src/stm32g4xx_hal_rcc_ex.o
 .text          0x0000000000000000        0x0 hal/Drivers/STM32G4xx_HAL_Driver/Src/stm32g4xx_hal_flash.o
 .data          0x0000000000000000        0x0 hal/Drivers/STM32G4xx_HAL_Driver/Src/stm32g4xx_hal_flash.o
 .bss           0x0000000000000000        0x0 hal/Drivers/STM32G4xx_HAL_Driver/Src/stm32g4xx_hal_flash.o
 .data.pFlash   0x0000000000000000       0x20 hal/Drivers/STM32G4xx_HAL_Driver/Src/stm32g4xx_hal_flash.o
 .text.HAL_FLASH_Program
                0x0000000000000000       0xac hal/Drivers/STM32G4xx_HAL_Driver/Src/stm32g4xx_hal_flash.o
 .text.HAL_FLASH_Program_IT
                0x0000000000000000       0xa0 hal/Drivers/STM32G4xx_HAL_Driver/Src/stm32g4xx_hal_flash.o
 .text.HAL_FLASH_IRQHandler
                0x0000000000000000      0x19c hal/Drivers/STM32G4xx_HAL_Driver/Src/stm32g4xx_hal_flash.o
 .text.HAL_FLASH_EndOfOperationCallback
                0x0000000000000000       0x14 hal/Drivers/STM32G4xx_HAL_Driver/Src/stm32g4xx_hal_flash.o
 .text.HAL_FLASH_OperationErrorCallback
                0x0000000000000000       0x14 hal/Drivers/STM32G4xx_HAL_Driver/Src/stm32g4xx_hal_flash.o
 .text.HAL_FLASH_Unlock
                0x0000000000000000       0x44 hal/Drivers/STM32G4xx_HAL_Driver/Src/stm32g4xx_hal_flash.o
 .text.HAL_FLASH_Lock
                0x0000000000000000       0x34 hal/Drivers/STM32G4xx_HAL_Driver/Src/stm32g4xx_hal_flash.o
 .text.HAL_FLASH_OB_Unlock
                0x0000000000000000       0x4c hal/Drivers/STM32G4xx_HAL_Driver/Src/stm32g4xx_hal_flash.o
 .text.HAL_FLASH_OB_Lock
                0x0000000000000000       0x38 hal/Drivers/STM32G4xx_HAL_Driver/Src/stm32g4xx_hal_flash.o
 .text.HAL_FLASH_OB_Launch
                0x0000000000000000       0x24 hal/Drivers/STM32G4xx_HAL_Driver/Src/stm32g4xx_hal_flash.o
 .text.HAL_FLASH_GetError
                0x0000000000000000       0x18 hal/Drivers/STM32G4xx_HAL_Driver/Src/stm32g4xx_hal_flash.o
 .text.FLASH_WaitForLastOperation
                0x0000000000000000       0xa8 hal/Drivers/STM32G4xx_HAL_Driver/Src/stm32g4xx_hal_flash.o
 .text.FLASH_Program_DoubleWord
                0x0000000000000000       0x4c hal/Drivers/STM32G4xx_HAL_Driver/Src/stm32g4xx_hal_flash.o
 .text.FLASH_Program_Fast
                0x0000000000000000       0x6c hal/Drivers/STM32G4xx_HAL_Driver/Src/stm32g4xx_hal_flash.o
 .debug_info    0x0000000000000000      0x7a6 hal/Drivers/STM32G4xx_HAL_Driver/Src/stm32g4xx_hal_flash.o
 .debug_abbrev  0x0000000000000000      0x2ea hal/Drivers/STM32G4xx_HAL_Driver/Src/stm32g4xx_hal_flash.o
 .debug_aranges
                0x0000000000000000       0x88 hal/Drivers/STM32G4xx_HAL_Driver/Src/stm32g4xx_hal_flash.o
 .debug_ranges  0x0000000000000000       0x78 hal/Drivers/STM32G4xx_HAL_Driver/Src/stm32g4xx_hal_flash.o
 .debug_line    0x0000000000000000      0x547 hal/Drivers/STM32G4xx_HAL_Driver/Src/stm32g4xx_hal_flash.o
 .debug_str     0x0000000000000000      0x690 hal/Drivers/STM32G4xx_HAL_Driver/Src/stm32g4xx_hal_flash.o
 .comment       0x0000000000000000       0x5a hal/Drivers/STM32G4xx_HAL_Driver/Src/stm32g4xx_hal_flash.o
 .debug_frame   0x0000000000000000      0x21c hal/Drivers/STM32G4xx_HAL_Driver/Src/stm32g4xx_hal_flash.o
 .ARM.attributes
                0x0000000000000000       0x34 hal/Drivers/STM32G4xx_HAL_Driver/Src/stm32g4xx_hal_flash.o
 .text          0x0000000000000000        0x0 hal/Drivers/STM32G4xx_HAL_Driver/Src/stm32g4xx_hal_flash_ex.o
 .data          0x0000000000000000        0x0 hal/Drivers/STM32G4xx_HAL_Driver/Src/stm32g4xx_hal_flash_ex.o
 .bss           0x0000000000000000        0x0 hal/Drivers/STM32G4xx_HAL_Driver/Src/stm32g4xx_hal_flash_ex.o
 .text.HAL_FLASHEx_Erase
                0x0000000000000000      0x13c hal/Drivers/STM32G4xx_HAL_Driver/Src/stm32g4xx_hal_flash_ex.o
 .text.HAL_FLASHEx_Erase_IT
                0x0000000000000000       0xf0 hal/Drivers/STM32G4xx_HAL_Driver/Src/stm32g4xx_hal_flash_ex.o
 .text.HAL_FLASHEx_OBProgram
                0x0000000000000000      0x120 hal/Drivers/STM32G4xx_HAL_Driver/Src/stm32g4xx_hal_flash_ex.o
 .text.HAL_FLASHEx_OBGetConfig
                0x0000000000000000       0xbe hal/Drivers/STM32G4xx_HAL_Driver/Src/stm32g4xx_hal_flash_ex.o
 .text.HAL_FLASHEx_EnableSecMemProtection
                0x0000000000000000       0x28 hal/Drivers/STM32G4xx_HAL_Driver/Src/stm32g4xx_hal_flash_ex.o
 .text.HAL_FLASHEx_EnableDebugger
                0x0000000000000000       0x20 hal/Drivers/STM32G4xx_HAL_Driver/Src/stm32g4xx_hal_flash_ex.o
 .text.HAL_FLASHEx_DisableDebugger
                0x0000000000000000       0x20 hal/Drivers/STM32G4xx_HAL_Driver/Src/stm32g4xx_hal_flash_ex.o
 .text.FLASH_MassErase
                0x0000000000000000       0x3c hal/Drivers/STM32G4xx_HAL_Driver/Src/stm32g4xx_hal_flash_ex.o
 .text.FLASH_PageErase
                0x0000000000000000       0x48 hal/Drivers/STM32G4xx_HAL_Driver/Src/stm32g4xx_hal_flash_ex.o
 .text.FLASH_FlushCaches
                0x0000000000000000       0x88 hal/Drivers/STM32G4xx_HAL_Driver/Src/stm32g4xx_hal_flash_ex.o
 .text.FLASH_OB_WRPConfig
                0x0000000000000000       0x6c hal/Drivers/STM32G4xx_HAL_Driver/Src/stm32g4xx_hal_flash_ex.o
 .text.FLASH_OB_RDPConfig
                0x0000000000000000       0x50 hal/Drivers/STM32G4xx_HAL_Driver/Src/stm32g4xx_hal_flash_ex.o
 .text.FLASH_OB_UserConfig
                0x0000000000000000      0x220 hal/Drivers/STM32G4xx_HAL_Driver/Src/stm32g4xx_hal_flash_ex.o
 .text.FLASH_OB_PCROPConfig
                0x0000000000000000       0xa4 hal/Drivers/STM32G4xx_HAL_Driver/Src/stm32g4xx_hal_flash_ex.o
 .text.FLASH_OB_SecMemConfig
                0x0000000000000000       0x58 hal/Drivers/STM32G4xx_HAL_Driver/Src/stm32g4xx_hal_flash_ex.o
 .text.FLASH_OB_BootLockConfig
                0x0000000000000000       0x50 hal/Drivers/STM32G4xx_HAL_Driver/Src/stm32g4xx_hal_flash_ex.o
 .text.FLASH_OB_GetSecMem
                0x0000000000000000       0x2c hal/Drivers/STM32G4xx_HAL_Driver/Src/stm32g4xx_hal_flash_ex.o
 .text.FLASH_OB_GetBootLock
                0x0000000000000000       0x1c hal/Drivers/STM32G4xx_HAL_Driver/Src/stm32g4xx_hal_flash_ex.o
 .text.FLASH_OB_GetWRP
                0x0000000000000000       0x60 hal/Drivers/STM32G4xx_HAL_Driver/Src/stm32g4xx_hal_flash_ex.o
 .text.FLASH_OB_GetRDP
                0x0000000000000000       0x30 hal/Drivers/STM32G4xx_HAL_Driver/Src/stm32g4xx_hal_flash_ex.o
 .text.FLASH_OB_GetUser
                0x0000000000000000       0x28 hal/Drivers/STM32G4xx_HAL_Driver/Src/stm32g4xx_hal_flash_ex.o
 .text.FLASH_OB_GetPCROP
                0x0000000000000000       0x6c hal/Drivers/STM32G4xx_HAL_Driver/Src/stm32g4xx_hal_flash_ex.o
 .debug_info    0x0000000000000000      0x9f2 hal/Drivers/STM32G4xx_HAL_Driver/Src/stm32g4xx_hal_flash_ex.o
 .debug_abbrev  0x0000000000000000      0x27c hal/Drivers/STM32G4xx_HAL_Driver/Src/stm32g4xx_hal_flash_ex.o
 .debug_aranges
                0x0000000000000000       0xc8 hal/Drivers/STM32G4xx_HAL_Driver/Src/stm32g4xx_hal_flash_ex.o
 .debug_ranges  0x0000000000000000       0xb8 hal/Drivers/STM32G4xx_HAL_Driver/Src/stm32g4xx_hal_flash_ex.o
 .debug_line    0x0000000000000000      0x7d5 hal/Drivers/STM32G4xx_HAL_Driver/Src/stm32g4xx_hal_flash_ex.o
 .debug_str     0x0000000000000000      0x7de hal/Drivers/STM32G4xx_HAL_Driver/Src/stm32g4xx_hal_flash_ex.o
 .comment       0x0000000000000000       0x5a hal/Drivers/STM32G4xx_HAL_Driver/Src/stm32g4xx_hal_flash_ex.o
 .debug_frame   0x0000000000000000      0x344 hal/Drivers/STM32G4xx_HAL_Driver/Src/stm32g4xx_hal_flash_ex.o
 .ARM.attributes
                0x0000000000000000       0x34 hal/Drivers/STM32G4xx_HAL_Driver/Src/stm32g4xx_hal_flash_ex.o
 .text          0x0000000000000000        0x0 hal/Drivers/STM32G4xx_HAL_Driver/Src/stm32g4xx_hal_flash_ramfunc.o
 .data          0x0000000000000000        0x0 hal/Drivers/STM32G4xx_HAL_Driver/Src/stm32g4xx_hal_flash_ramfunc.o
 .bss           0x0000000000000000        0x0 hal/Drivers/STM32G4xx_HAL_Driver/Src/stm32g4xx_hal_flash_ramfunc.o
 .RamFunc       0x0000000000000000       0x68 hal/Drivers/STM32G4xx_HAL_Driver/Src/stm32g4xx_hal_flash_ramfunc.o
 .debug_info    0x0000000000000000      0x3da hal/Drivers/STM32G4xx_HAL_Driver/Src/stm32g4xx_hal_flash_ramfunc.o
 .debug_abbrev  0x0000000000000000      0x117 hal/Drivers/STM32G4xx_HAL_Driver/Src/stm32g4xx_hal_flash_ramfunc.o
 .debug_aranges
                0x0000000000000000       0x28 hal/Drivers/STM32G4xx_HAL_Driver/Src/stm32g4xx_hal_flash_ramfunc.o
 .debug_ranges  0x0000000000000000       0x18 hal/Drivers/STM32G4xx_HAL_Driver/Src/stm32g4xx_hal_flash_ramfunc.o
 .debug_line    0x0000000000000000      0x1ba hal/Drivers/STM32G4xx_HAL_Driver/Src/stm32g4xx_hal_flash_ramfunc.o
 .debug_str     0x0000000000000000      0x4d0 hal/Drivers/STM32G4xx_HAL_Driver/Src/stm32g4xx_hal_flash_ramfunc.o
 .comment       0x0000000000000000       0x5a hal/Drivers/STM32G4xx_HAL_Driver/Src/stm32g4xx_hal_flash_ramfunc.o
 .debug_frame   0x0000000000000000       0x50 hal/Drivers/STM32G4xx_HAL_Driver/Src/stm32g4xx_hal_flash_ramfunc.o
 .ARM.attributes
                0x0000000000000000       0x34 hal/Drivers/STM32G4xx_HAL_Driver/Src/stm32g4xx_hal_flash_ramfunc.o
 .text          0x0000000000000000        0x0 hal/Drivers/STM32G4xx_HAL_Driver/Src/stm32g4xx_hal_gpio.o
 .data          0x0000000000000000        0x0 hal/Drivers/STM32G4xx_HAL_Driver/Src/stm32g4xx_hal_gpio.o
 .bss           0x0000000000000000        0x0 hal/Drivers/STM32G4xx_HAL_Driver/Src/stm32g4xx_hal_gpio.o
 .text.HAL_GPIO_DeInit
                0x0000000000000000      0x1c4 hal/Drivers/STM32G4xx_HAL_Driver/Src/stm32g4xx_hal_gpio.o
 .text.HAL_GPIO_ReadPin
                0x0000000000000000       0x30 hal/Drivers/STM32G4xx_HAL_Driver/Src/stm32g4xx_hal_gpio.o
 .text.HAL_GPIO_WritePin
                0x0000000000000000       0x30 hal/Drivers/STM32G4xx_HAL_Driver/Src/stm32g4xx_hal_gpio.o
 .text.HAL_GPIO_TogglePin
                0x0000000000000000       0x34 hal/Drivers/STM32G4xx_HAL_Driver/Src/stm32g4xx_hal_gpio.o
 .text.HAL_GPIO_LockPin
                0x0000000000000000       0x50 hal/Drivers/STM32G4xx_HAL_Driver/Src/stm32g4xx_hal_gpio.o
 .text.HAL_GPIO_EXTI_IRQHandler
                0x0000000000000000       0x30 hal/Drivers/STM32G4xx_HAL_Driver/Src/stm32g4xx_hal_gpio.o
 .text.HAL_GPIO_EXTI_Callback
                0x0000000000000000       0x16 hal/Drivers/STM32G4xx_HAL_Driver/Src/stm32g4xx_hal_gpio.o
 .text          0x0000000000000000        0x0 hal/Drivers/STM32G4xx_HAL_Driver/Src/stm32g4xx_hal_exti.o
 .data          0x0000000000000000        0x0 hal/Drivers/STM32G4xx_HAL_Driver/Src/stm32g4xx_hal_exti.o
 .bss           0x0000000000000000        0x0 hal/Drivers/STM32G4xx_HAL_Driver/Src/stm32g4xx_hal_exti.o
 .text.HAL_EXTI_SetConfigLine
                0x0000000000000000      0x1a0 hal/Drivers/STM32G4xx_HAL_Driver/Src/stm32g4xx_hal_exti.o
 .text.HAL_EXTI_GetConfigLine
                0x0000000000000000      0x150 hal/Drivers/STM32G4xx_HAL_Driver/Src/stm32g4xx_hal_exti.o
 .text.HAL_EXTI_ClearConfigLine
                0x0000000000000000      0x110 hal/Drivers/STM32G4xx_HAL_Driver/Src/stm32g4xx_hal_exti.o
 .text.HAL_EXTI_RegisterCallback
                0x0000000000000000       0x3a hal/Drivers/STM32G4xx_HAL_Driver/Src/stm32g4xx_hal_exti.o
 .text.HAL_EXTI_GetHandle
                0x0000000000000000       0x28 hal/Drivers/STM32G4xx_HAL_Driver/Src/stm32g4xx_hal_exti.o
 .text.HAL_EXTI_IRQHandler
                0x0000000000000000       0x60 hal/Drivers/STM32G4xx_HAL_Driver/Src/stm32g4xx_hal_exti.o
 .text.HAL_EXTI_GetPending
                0x0000000000000000       0x58 hal/Drivers/STM32G4xx_HAL_Driver/Src/stm32g4xx_hal_exti.o
 .text.HAL_EXTI_ClearPending
                0x0000000000000000       0x48 hal/Drivers/STM32G4xx_HAL_Driver/Src/stm32g4xx_hal_exti.o
 .text.HAL_EXTI_GenerateSWI
                0x0000000000000000       0x44 hal/Drivers/STM32G4xx_HAL_Driver/Src/stm32g4xx_hal_exti.o
 .debug_info    0x0000000000000000      0x8a9 hal/Drivers/STM32G4xx_HAL_Driver/Src/stm32g4xx_hal_exti.o
 .debug_abbrev  0x0000000000000000      0x1c1 hal/Drivers/STM32G4xx_HAL_Driver/Src/stm32g4xx_hal_exti.o
 .debug_aranges
                0x0000000000000000       0x60 hal/Drivers/STM32G4xx_HAL_Driver/Src/stm32g4xx_hal_exti.o
 .debug_ranges  0x0000000000000000       0x50 hal/Drivers/STM32G4xx_HAL_Driver/Src/stm32g4xx_hal_exti.o
 .debug_line    0x0000000000000000      0x51f hal/Drivers/STM32G4xx_HAL_Driver/Src/stm32g4xx_hal_exti.o
 .debug_str     0x0000000000000000      0x65a hal/Drivers/STM32G4xx_HAL_Driver/Src/stm32g4xx_hal_exti.o
 .comment       0x0000000000000000       0x5a hal/Drivers/STM32G4xx_HAL_Driver/Src/stm32g4xx_hal_exti.o
 .debug_frame   0x0000000000000000      0x174 hal/Drivers/STM32G4xx_HAL_Driver/Src/stm32g4xx_hal_exti.o
 .ARM.attributes
                0x0000000000000000       0x34 hal/Drivers/STM32G4xx_HAL_Driver/Src/stm32g4xx_hal_exti.o
 .text          0x0000000000000000        0x0 hal/Drivers/STM32G4xx_HAL_Driver/Src/stm32g4xx_hal_dma.o
 .data          0x0000000000000000        0x0 hal/Drivers/STM32G4xx_HAL_Driver/Src/stm32g4xx_hal_dma.o
 .bss           0x0000000000000000        0x0 hal/Drivers/STM32G4xx_HAL_Driver/Src/stm32g4xx_hal_dma.o
 .text.HAL_DMA_Init
                0x0000000000000000      0x150 hal/Drivers/STM32G4xx_HAL_Driver/Src/stm32g4xx_hal_dma.o
 .text.HAL_DMA_DeInit
                0x0000000000000000      0x12c hal/Drivers/STM32G4xx_HAL_Driver/Src/stm32g4xx_hal_dma.o
 .text.HAL_DMA_Start
                0x0000000000000000       0x86 hal/Drivers/STM32G4xx_HAL_Driver/Src/stm32g4xx_hal_dma.o
 .text.HAL_DMA_Start_IT
                0x0000000000000000       0xf6 hal/Drivers/STM32G4xx_HAL_Driver/Src/stm32g4xx_hal_dma.o
 .text.HAL_DMA_Abort
                0x0000000000000000       0xb2 hal/Drivers/STM32G4xx_HAL_Driver/Src/stm32g4xx_hal_dma.o
 .text.HAL_DMA_Abort_IT
                0x0000000000000000       0xce hal/Drivers/STM32G4xx_HAL_Driver/Src/stm32g4xx_hal_dma.o
 .text.HAL_DMA_PollForTransfer
                0x0000000000000000      0x1b2 hal/Drivers/STM32G4xx_HAL_Driver/Src/stm32g4xx_hal_dma.o
 .text.HAL_DMA_IRQHandler
                0x0000000000000000      0x15e hal/Drivers/STM32G4xx_HAL_Driver/Src/stm32g4xx_hal_dma.o
 .text.HAL_DMA_RegisterCallback
                0x0000000000000000       0x90 hal/Drivers/STM32G4xx_HAL_Driver/Src/stm32g4xx_hal_dma.o
 .text.HAL_DMA_UnRegisterCallback
                0x0000000000000000       0xb0 hal/Drivers/STM32G4xx_HAL_Driver/Src/stm32g4xx_hal_dma.o
 .text.HAL_DMA_GetState
                0x0000000000000000       0x1c hal/Drivers/STM32G4xx_HAL_Driver/Src/stm32g4xx_hal_dma.o
 .text.HAL_DMA_GetError
                0x0000000000000000       0x18 hal/Drivers/STM32G4xx_HAL_Driver/Src/stm32g4xx_hal_dma.o
 .text.DMA_SetConfig
                0x0000000000000000       0x7c hal/Drivers/STM32G4xx_HAL_Driver/Src/stm32g4xx_hal_dma.o
 .text.DMA_CalcDMAMUXChannelBaseAndMask
                0x0000000000000000       0x7c hal/Drivers/STM32G4xx_HAL_Driver/Src/stm32g4xx_hal_dma.o
 .text.DMA_CalcDMAMUXRequestGenBaseAndMask
                0x0000000000000000       0x48 hal/Drivers/STM32G4xx_HAL_Driver/Src/stm32g4xx_hal_dma.o
 .debug_info    0x0000000000000000      0xaa9 hal/Drivers/STM32G4xx_HAL_Driver/Src/stm32g4xx_hal_dma.o
 .debug_abbrev  0x0000000000000000      0x1fe hal/Drivers/STM32G4xx_HAL_Driver/Src/stm32g4xx_hal_dma.o
 .debug_aranges
                0x0000000000000000       0x90 hal/Drivers/STM32G4xx_HAL_Driver/Src/stm32g4xx_hal_dma.o
 .debug_ranges  0x0000000000000000       0x80 hal/Drivers/STM32G4xx_HAL_Driver/Src/stm32g4xx_hal_dma.o
 .debug_line    0x0000000000000000      0x8f9 hal/Drivers/STM32G4xx_HAL_Driver/Src/stm32g4xx_hal_dma.o
 .debug_str     0x0000000000000000      0x987 hal/Drivers/STM32G4xx_HAL_Driver/Src/stm32g4xx_hal_dma.o
 .comment       0x0000000000000000       0x5a hal/Drivers/STM32G4xx_HAL_Driver/Src/stm32g4xx_hal_dma.o
 .debug_frame   0x0000000000000000      0x24c hal/Drivers/STM32G4xx_HAL_Driver/Src/stm32g4xx_hal_dma.o
 .ARM.attributes
                0x0000000000000000       0x34 hal/Drivers/STM32G4xx_HAL_Driver/Src/stm32g4xx_hal_dma.o
 .text          0x0000000000000000        0x0 hal/Drivers/STM32G4xx_HAL_Driver/Src/stm32g4xx_hal_dma_ex.o
 .data          0x0000000000000000        0x0 hal/Drivers/STM32G4xx_HAL_Driver/Src/stm32g4xx_hal_dma_ex.o
 .bss           0x0000000000000000        0x0 hal/Drivers/STM32G4xx_HAL_Driver/Src/stm32g4xx_hal_dma_ex.o
 .text.HAL_DMAEx_ConfigMuxSync
                0x0000000000000000       0x7c hal/Drivers/STM32G4xx_HAL_Driver/Src/stm32g4xx_hal_dma_ex.o
 .text.HAL_DMAEx_ConfigMuxRequestGenerator
                0x0000000000000000       0x94 hal/Drivers/STM32G4xx_HAL_Driver/Src/stm32g4xx_hal_dma_ex.o
 .text.HAL_DMAEx_EnableMuxRequestGenerator
                0x0000000000000000       0x3e hal/Drivers/STM32G4xx_HAL_Driver/Src/stm32g4xx_hal_dma_ex.o
 .text.HAL_DMAEx_DisableMuxRequestGenerator
                0x0000000000000000       0x3e hal/Drivers/STM32G4xx_HAL_Driver/Src/stm32g4xx_hal_dma_ex.o
 .text.HAL_DMAEx_MUX_IRQHandler
                0x0000000000000000       0xa4 hal/Drivers/STM32G4xx_HAL_Driver/Src/stm32g4xx_hal_dma_ex.o
 .debug_info    0x0000000000000000      0x825 hal/Drivers/STM32G4xx_HAL_Driver/Src/stm32g4xx_hal_dma_ex.o
 .debug_abbrev  0x0000000000000000      0x1f3 hal/Drivers/STM32G4xx_HAL_Driver/Src/stm32g4xx_hal_dma_ex.o
 .debug_aranges
                0x0000000000000000       0x40 hal/Drivers/STM32G4xx_HAL_Driver/Src/stm32g4xx_hal_dma_ex.o
 .debug_ranges  0x0000000000000000       0x30 hal/Drivers/STM32G4xx_HAL_Driver/Src/stm32g4xx_hal_dma_ex.o
 .debug_line    0x0000000000000000      0x3a4 hal/Drivers/STM32G4xx_HAL_Driver/Src/stm32g4xx_hal_dma_ex.o
 .debug_str     0x0000000000000000      0x85e hal/Drivers/STM32G4xx_HAL_Driver/Src/stm32g4xx_hal_dma_ex.o
 .comment       0x0000000000000000       0x5a hal/Drivers/STM32G4xx_HAL_Driver/Src/stm32g4xx_hal_dma_ex.o
 .debug_frame   0x0000000000000000       0xd4 hal/Drivers/STM32G4xx_HAL_Driver/Src/stm32g4xx_hal_dma_ex.o
 .ARM.attributes
                0x0000000000000000       0x34 hal/Drivers/STM32G4xx_HAL_Driver/Src/stm32g4xx_hal_dma_ex.o
 .text          0x0000000000000000        0x0 hal/Drivers/STM32G4xx_HAL_Driver/Src/stm32g4xx_hal_pwr.o
 .data          0x0000000000000000        0x0 hal/Drivers/STM32G4xx_HAL_Driver/Src/stm32g4xx_hal_pwr.o
 .bss           0x0000000000000000        0x0 hal/Drivers/STM32G4xx_HAL_Driver/Src/stm32g4xx_hal_pwr.o
 .text.HAL_PWR_DeInit
                0x0000000000000000       0x2c hal/Drivers/STM32G4xx_HAL_Driver/Src/stm32g4xx_hal_pwr.o
 .text.HAL_PWR_EnableBkUpAccess
                0x0000000000000000       0x20 hal/Drivers/STM32G4xx_HAL_Driver/Src/stm32g4xx_hal_pwr.o
 .text.HAL_PWR_DisableBkUpAccess
                0x0000000000000000       0x20 hal/Drivers/STM32G4xx_HAL_Driver/Src/stm32g4xx_hal_pwr.o
 .text.HAL_PWR_ConfigPVD
                0x0000000000000000       0xc0 hal/Drivers/STM32G4xx_HAL_Driver/Src/stm32g4xx_hal_pwr.o
 .text.HAL_PWR_EnablePVD
                0x0000000000000000       0x20 hal/Drivers/STM32G4xx_HAL_Driver/Src/stm32g4xx_hal_pwr.o
 .text.HAL_PWR_DisablePVD
                0x0000000000000000       0x20 hal/Drivers/STM32G4xx_HAL_Driver/Src/stm32g4xx_hal_pwr.o
 .text.HAL_PWR_EnableWakeUpPin
                0x0000000000000000       0x40 hal/Drivers/STM32G4xx_HAL_Driver/Src/stm32g4xx_hal_pwr.o
 .text.HAL_PWR_DisableWakeUpPin
                0x0000000000000000       0x2c hal/Drivers/STM32G4xx_HAL_Driver/Src/stm32g4xx_hal_pwr.o
 .text.HAL_PWR_EnterSLEEPMode
                0x0000000000000000       0x64 hal/Drivers/STM32G4xx_HAL_Driver/Src/stm32g4xx_hal_pwr.o
 .text.HAL_PWR_EnterSTOPMode
                0x0000000000000000       0x2e hal/Drivers/STM32G4xx_HAL_Driver/Src/stm32g4xx_hal_pwr.o
 .text.HAL_PWR_EnterSTANDBYMode
                0x0000000000000000       0x34 hal/Drivers/STM32G4xx_HAL_Driver/Src/stm32g4xx_hal_pwr.o
 .text.HAL_PWR_EnableSleepOnExit
                0x0000000000000000       0x20 hal/Drivers/STM32G4xx_HAL_Driver/Src/stm32g4xx_hal_pwr.o
 .text.HAL_PWR_DisableSleepOnExit
                0x0000000000000000       0x20 hal/Drivers/STM32G4xx_HAL_Driver/Src/stm32g4xx_hal_pwr.o
 .text.HAL_PWR_EnableSEVOnPend
                0x0000000000000000       0x20 hal/Drivers/STM32G4xx_HAL_Driver/Src/stm32g4xx_hal_pwr.o
 .text.HAL_PWR_DisableSEVOnPend
                0x0000000000000000       0x20 hal/Drivers/STM32G4xx_HAL_Driver/Src/stm32g4xx_hal_pwr.o
 .text.HAL_PWR_PVDCallback
                0x0000000000000000        0xe hal/Drivers/STM32G4xx_HAL_Driver/Src/stm32g4xx_hal_pwr.o
 .debug_info    0x0000000000000000      0xafc hal/Drivers/STM32G4xx_HAL_Driver/Src/stm32g4xx_hal_pwr.o
 .debug_abbrev  0x0000000000000000      0x19f hal/Drivers/STM32G4xx_HAL_Driver/Src/stm32g4xx_hal_pwr.o
 .debug_aranges
                0x0000000000000000       0x98 hal/Drivers/STM32G4xx_HAL_Driver/Src/stm32g4xx_hal_pwr.o
 .debug_ranges  0x0000000000000000       0x88 hal/Drivers/STM32G4xx_HAL_Driver/Src/stm32g4xx_hal_pwr.o
 .debug_line    0x0000000000000000      0x37a hal/Drivers/STM32G4xx_HAL_Driver/Src/stm32g4xx_hal_pwr.o
 .debug_str     0x0000000000000000      0x845 hal/Drivers/STM32G4xx_HAL_Driver/Src/stm32g4xx_hal_pwr.o
 .comment       0x0000000000000000       0x5a hal/Drivers/STM32G4xx_HAL_Driver/Src/stm32g4xx_hal_pwr.o
 .debug_frame   0x0000000000000000      0x230 hal/Drivers/STM32G4xx_HAL_Driver/Src/stm32g4xx_hal_pwr.o
 .ARM.attributes
                0x0000000000000000       0x34 hal/Drivers/STM32G4xx_HAL_Driver/Src/stm32g4xx_hal_pwr.o
 .text          0x0000000000000000        0x0 hal/Drivers/STM32G4xx_HAL_Driver/Src/stm32g4xx_hal_cortex.o
 .data          0x0000000000000000        0x0 hal/Drivers/STM32G4xx_HAL_Driver/Src/stm32g4xx_hal_cortex.o
 .bss           0x0000000000000000        0x0 hal/Drivers/STM32G4xx_HAL_Driver/Src/stm32g4xx_hal_cortex.o
 .text.__NVIC_EnableIRQ
                0x0000000000000000       0x3c hal/Drivers/STM32G4xx_HAL_Driver/Src/stm32g4xx_hal_cortex.o
 .text.__NVIC_DisableIRQ
                0x0000000000000000       0x48 hal/Drivers/STM32G4xx_HAL_Driver/Src/stm32g4xx_hal_cortex.o
 .text.__NVIC_GetPendingIRQ
                0x0000000000000000       0x44 hal/Drivers/STM32G4xx_HAL_Driver/Src/stm32g4xx_hal_cortex.o
 .text.__NVIC_SetPendingIRQ
                0x0000000000000000       0x3c hal/Drivers/STM32G4xx_HAL_Driver/Src/stm32g4xx_hal_cortex.o
 .text.__NVIC_ClearPendingIRQ
                0x0000000000000000       0x3c hal/Drivers/STM32G4xx_HAL_Driver/Src/stm32g4xx_hal_cortex.o
 .text.__NVIC_GetActive
                0x0000000000000000       0x44 hal/Drivers/STM32G4xx_HAL_Driver/Src/stm32g4xx_hal_cortex.o
 .text.__NVIC_GetPriority
                0x0000000000000000       0x50 hal/Drivers/STM32G4xx_HAL_Driver/Src/stm32g4xx_hal_cortex.o
 .text.NVIC_DecodePriority
                0x0000000000000000       0x6e hal/Drivers/STM32G4xx_HAL_Driver/Src/stm32g4xx_hal_cortex.o
 .text.__NVIC_SystemReset
                0x0000000000000000       0x2c hal/Drivers/STM32G4xx_HAL_Driver/Src/stm32g4xx_hal_cortex.o
 .text.HAL_NVIC_EnableIRQ
                0x0000000000000000       0x1c hal/Drivers/STM32G4xx_HAL_Driver/Src/stm32g4xx_hal_cortex.o
 .text.HAL_NVIC_DisableIRQ
                0x0000000000000000       0x1c hal/Drivers/STM32G4xx_HAL_Driver/Src/stm32g4xx_hal_cortex.o
 .text.HAL_NVIC_SystemReset
                0x0000000000000000        0x8 hal/Drivers/STM32G4xx_HAL_Driver/Src/stm32g4xx_hal_cortex.o
 .text.HAL_NVIC_GetPriorityGrouping
                0x0000000000000000        0xe hal/Drivers/STM32G4xx_HAL_Driver/Src/stm32g4xx_hal_cortex.o
 .text.HAL_NVIC_GetPriority
                0x0000000000000000       0x2c hal/Drivers/STM32G4xx_HAL_Driver/Src/stm32g4xx_hal_cortex.o
 .text.HAL_NVIC_SetPendingIRQ
                0x0000000000000000       0x1c hal/Drivers/STM32G4xx_HAL_Driver/Src/stm32g4xx_hal_cortex.o
 .text.HAL_NVIC_GetPendingIRQ
                0x0000000000000000       0x1e hal/Drivers/STM32G4xx_HAL_Driver/Src/stm32g4xx_hal_cortex.o
 .text.HAL_NVIC_ClearPendingIRQ
                0x0000000000000000       0x1c hal/Drivers/STM32G4xx_HAL_Driver/Src/stm32g4xx_hal_cortex.o
 .text.HAL_NVIC_GetActive
                0x0000000000000000       0x1e hal/Drivers/STM32G4xx_HAL_Driver/Src/stm32g4xx_hal_cortex.o
 .text.HAL_SYSTICK_CLKSourceConfig
                0x0000000000000000       0x38 hal/Drivers/STM32G4xx_HAL_Driver/Src/stm32g4xx_hal_cortex.o
 .text.HAL_SYSTICK_IRQHandler
                0x0000000000000000        0xc hal/Drivers/STM32G4xx_HAL_Driver/Src/stm32g4xx_hal_cortex.o
 .text.HAL_SYSTICK_Callback
                0x0000000000000000        0xe hal/Drivers/STM32G4xx_HAL_Driver/Src/stm32g4xx_hal_cortex.o
 .text.HAL_MPU_Enable
                0x0000000000000000       0x30 hal/Drivers/STM32G4xx_HAL_Driver/Src/stm32g4xx_hal_cortex.o
 .text.HAL_MPU_Disable
                0x0000000000000000       0x20 hal/Drivers/STM32G4xx_HAL_Driver/Src/stm32g4xx_hal_cortex.o
 .text.HAL_MPU_ConfigRegion
                0x0000000000000000       0x88 hal/Drivers/STM32G4xx_HAL_Driver/Src/stm32g4xx_hal_cortex.o
 .data          0x0000000000000000        0x0 /usr/lib/gcc/arm-none-eabi/9.2.1/thumb/v7e-m+fp/hard/libgcc.a(_aeabi_uldivmod.o)
 .bss           0x0000000000000000        0x0 /usr/lib/gcc/arm-none-eabi/9.2.1/thumb/v7e-m+fp/hard/libgcc.a(_aeabi_uldivmod.o)
 .data          0x0000000000000000        0x0 /usr/lib/gcc/arm-none-eabi/9.2.1/thumb/v7e-m+fp/hard/libgcc.a(_udivmoddi4.o)
 .bss           0x0000000000000000        0x0 /usr/lib/gcc/arm-none-eabi/9.2.1/thumb/v7e-m+fp/hard/libgcc.a(_udivmoddi4.o)
 .ARM.extab     0x0000000000000000        0x0 /usr/lib/gcc/arm-none-eabi/9.2.1/thumb/v7e-m+fp/hard/libgcc.a(_udivmoddi4.o)
 .data          0x0000000000000000        0x0 /usr/lib/gcc/arm-none-eabi/9.2.1/thumb/v7e-m+fp/hard/libgcc.a(_dvmd_tls.o)
 .bss           0x0000000000000000        0x0 /usr/lib/gcc/arm-none-eabi/9.2.1/thumb/v7e-m+fp/hard/libgcc.a(_dvmd_tls.o)
 .data          0x0000000000000000        0x0 /usr/lib/gcc/arm-none-eabi/9.2.1/../../../arm-none-eabi/lib/thumb/v7e-m+fp/hard/libc_nano.a(lib_a-assert.o)
 .bss           0x0000000000000000        0x0 /usr/lib/gcc/arm-none-eabi/9.2.1/../../../arm-none-eabi/lib/thumb/v7e-m+fp/hard/libc_nano.a(lib_a-assert.o)
 .data          0x0000000000000000        0x0 /usr/lib/gcc/arm-none-eabi/9.2.1/../../../arm-none-eabi/lib/thumb/v7e-m+fp/hard/libc_nano.a(lib_a-fprintf.o)
 .bss           0x0000000000000000        0x0 /usr/lib/gcc/arm-none-eabi/9.2.1/../../../arm-none-eabi/lib/thumb/v7e-m+fp/hard/libc_nano.a(lib_a-fprintf.o)
 .text          0x0000000000000000       0x20 /usr/lib/gcc/arm-none-eabi/9.2.1/../../../arm-none-eabi/lib/thumb/v7e-m+fp/hard/libc_nano.a(lib_a-malloc.o)
 .data          0x0000000000000000        0x0 /usr/lib/gcc/arm-none-eabi/9.2.1/../../../arm-none-eabi/lib/thumb/v7e-m+fp/hard/libc_nano.a(lib_a-malloc.o)
 .bss           0x0000000000000000        0x0 /usr/lib/gcc/arm-none-eabi/9.2.1/../../../arm-none-eabi/lib/thumb/v7e-m+fp/hard/libc_nano.a(lib_a-malloc.o)
 .debug_info    0x0000000000000000      0x9b6 /usr/lib/gcc/arm-none-eabi/9.2.1/../../../arm-none-eabi/lib/thumb/v7e-m+fp/hard/libc_nano.a(lib_a-malloc.o)
 .debug_abbrev  0x0000000000000000      0x1f2 /usr/lib/gcc/arm-none-eabi/9.2.1/../../../arm-none-eabi/lib/thumb/v7e-m+fp/hard/libc_nano.a(lib_a-malloc.o)
 .debug_loc     0x0000000000000000       0x64 /usr/lib/gcc/arm-none-eabi/9.2.1/../../../arm-none-eabi/lib/thumb/v7e-m+fp/hard/libc_nano.a(lib_a-malloc.o)
 .debug_aranges
                0x0000000000000000       0x20 /usr/lib/gcc/arm-none-eabi/9.2.1/../../../arm-none-eabi/lib/thumb/v7e-m+fp/hard/libc_nano.a(lib_a-malloc.o)
 .debug_line    0x0000000000000000      0x15e /usr/lib/gcc/arm-none-eabi/9.2.1/../../../arm-none-eabi/lib/thumb/v7e-m+fp/hard/libc_nano.a(lib_a-malloc.o)
 .debug_str     0x0000000000000000      0x613 /usr/lib/gcc/arm-none-eabi/9.2.1/../../../arm-none-eabi/lib/thumb/v7e-m+fp/hard/libc_nano.a(lib_a-malloc.o)
 .comment       0x0000000000000000       0x4f /usr/lib/gcc/arm-none-eabi/9.2.1/../../../arm-none-eabi/lib/thumb/v7e-m+fp/hard/libc_nano.a(lib_a-malloc.o)
 .debug_frame   0x0000000000000000       0x30 /usr/lib/gcc/arm-none-eabi/9.2.1/../../../arm-none-eabi/lib/thumb/v7e-m+fp/hard/libc_nano.a(lib_a-malloc.o)
 .ARM.attributes
                0x0000000000000000       0x34 /usr/lib/gcc/arm-none-eabi/9.2.1/../../../arm-none-eabi/lib/thumb/v7e-m+fp/hard/libc_nano.a(lib_a-malloc.o)
 .data          0x0000000000000000        0x0 /usr/lib/gcc/arm-none-eabi/9.2.1/../../../arm-none-eabi/lib/thumb/v7e-m+fp/hard/libc_nano.a(lib_a-memcmp.o)
 .bss           0x0000000000000000        0x0 /usr/lib/gcc/arm-none-eabi/9.2.1/../../../arm-none-eabi/lib/thumb/v7e-m+fp/hard/libc_nano.a(lib_a-memcmp.o)
 .data          0x0000000000000000        0x0 /usr/lib/gcc/arm-none-eabi/9.2.1/../../../arm-none-eabi/lib/thumb/v7e-m+fp/hard/libc_nano.a(lib_a-memcpy.o)
 .bss           0x0000000000000000        0x0 /usr/lib/gcc/arm-none-eabi/9.2.1/../../../arm-none-eabi/lib/thumb/v7e-m+fp/hard/libc_nano.a(lib_a-memcpy.o)
 .data          0x0000000000000000        0x0 /usr/lib/gcc/arm-none-eabi/9.2.1/../../../arm-none-eabi/lib/thumb/v7e-m+fp/hard/libc_nano.a(lib_a-nano-freer.o)
 .bss           0x0000000000000000        0x0 /usr/lib/gcc/arm-none-eabi/9.2.1/../../../arm-none-eabi/lib/thumb/v7e-m+fp/hard/libc_nano.a(lib_a-nano-freer.o)
 .data          0x0000000000000000        0x0 /usr/lib/gcc/arm-none-eabi/9.2.1/../../../arm-none-eabi/lib/thumb/v7e-m+fp/hard/libc_nano.a(lib_a-nano-mallocr.o)
 .data          0x0000000000000000        0x0 /usr/lib/gcc/arm-none-eabi/9.2.1/../../../arm-none-eabi/lib/thumb/v7e-m+fp/hard/libc_nano.a(lib_a-nano-vfprintf.o)
 .bss           0x0000000000000000        0x0 /usr/lib/gcc/arm-none-eabi/9.2.1/../../../arm-none-eabi/lib/thumb/v7e-m+fp/hard/libc_nano.a(lib_a-nano-vfprintf.o)
 .data          0x0000000000000000        0x0 /usr/lib/gcc/arm-none-eabi/9.2.1/../../../arm-none-eabi/lib/thumb/v7e-m+fp/hard/libc_nano.a(lib_a-nano-vfprintf_i.o)
 .bss           0x0000000000000000        0x0 /usr/lib/gcc/arm-none-eabi/9.2.1/../../../arm-none-eabi/lib/thumb/v7e-m+fp/hard/libc_nano.a(lib_a-nano-vfprintf_i.o)
 .data          0x0000000000000000        0x0 /usr/lib/gcc/arm-none-eabi/9.2.1/../../../arm-none-eabi/lib/thumb/v7e-m+fp/hard/libc_nano.a(lib_a-printf.o)
 .bss           0x0000000000000000        0x0 /usr/lib/gcc/arm-none-eabi/9.2.1/../../../arm-none-eabi/lib/thumb/v7e-m+fp/hard/libc_nano.a(lib_a-printf.o)
 .data          0x0000000000000000        0x0 /usr/lib/gcc/arm-none-eabi/9.2.1/../../../arm-none-eabi/lib/thumb/v7e-m+fp/hard/libc_nano.a(lib_a-sbrkr.o)
 .bss           0x0000000000000000        0x0 /usr/lib/gcc/arm-none-eabi/9.2.1/../../../arm-none-eabi/lib/thumb/v7e-m+fp/hard/libc_nano.a(lib_a-sbrkr.o)
 .data          0x0000000000000000        0x0 /usr/lib/gcc/arm-none-eabi/9.2.1/../../../arm-none-eabi/lib/thumb/v7e-m+fp/hard/libc_nano.a(lib_a-wbuf.o)
 .bss           0x0000000000000000        0x0 /usr/lib/gcc/arm-none-eabi/9.2.1/../../../arm-none-eabi/lib/thumb/v7e-m+fp/hard/libc_nano.a(lib_a-wbuf.o)
 .data          0x0000000000000000        0x0 /usr/lib/gcc/arm-none-eabi/9.2.1/../../../arm-none-eabi/lib/thumb/v7e-m+fp/hard/libc_nano.a(lib_a-wsetup.o)
 .bss           0x0000000000000000        0x0 /usr/lib/gcc/arm-none-eabi/9.2.1/../../../arm-none-eabi/lib/thumb/v7e-m+fp/hard/libc_nano.a(lib_a-wsetup.o)
 .data          0x0000000000000000        0x0 /usr/lib/gcc/arm-none-eabi/9.2.1/../../../arm-none-eabi/lib/thumb/v7e-m+fp/hard/libc_nano.a(lib_a-abort.o)
 .bss           0x0000000000000000        0x0 /usr/lib/gcc/arm-none-eabi/9.2.1/../../../arm-none-eabi/lib/thumb/v7e-m+fp/hard/libc_nano.a(lib_a-abort.o)
 .data          0x0000000000000000        0x0 /usr/lib/gcc/arm-none-eabi/9.2.1/../../../arm-none-eabi/lib/thumb/v7e-m+fp/hard/libc_nano.a(lib_a-fflush.o)
 .bss           0x0000000000000000        0x0 /usr/lib/gcc/arm-none-eabi/9.2.1/../../../arm-none-eabi/lib/thumb/v7e-m+fp/hard/libc_nano.a(lib_a-fflush.o)
 .data          0x0000000000000000        0x0 /usr/lib/gcc/arm-none-eabi/9.2.1/../../../arm-none-eabi/lib/thumb/v7e-m+fp/hard/libc_nano.a(lib_a-findfp.o)
 .bss           0x0000000000000000        0x0 /usr/lib/gcc/arm-none-eabi/9.2.1/../../../arm-none-eabi/lib/thumb/v7e-m+fp/hard/libc_nano.a(lib_a-findfp.o)
 .data          0x0000000000000000        0x0 /usr/lib/gcc/arm-none-eabi/9.2.1/../../../arm-none-eabi/lib/thumb/v7e-m+fp/hard/libc_nano.a(lib_a-fvwrite.o)
 .bss           0x0000000000000000        0x0 /usr/lib/gcc/arm-none-eabi/9.2.1/../../../arm-none-eabi/lib/thumb/v7e-m+fp/hard/libc_nano.a(lib_a-fvwrite.o)
 .data          0x0000000000000000        0x0 /usr/lib/gcc/arm-none-eabi/9.2.1/../../../arm-none-eabi/lib/thumb/v7e-m+fp/hard/libc_nano.a(lib_a-fwalk.o)
 .bss           0x0000000000000000        0x0 /usr/lib/gcc/arm-none-eabi/9.2.1/../../../arm-none-eabi/lib/thumb/v7e-m+fp/hard/libc_nano.a(lib_a-fwalk.o)
 .data          0x0000000000000000        0x0 /usr/lib/gcc/arm-none-eabi/9.2.1/../../../arm-none-eabi/lib/thumb/v7e-m+fp/hard/libc_nano.a(lib_a-makebuf.o)
 .bss           0x0000000000000000        0x0 /usr/lib/gcc/arm-none-eabi/9.2.1/../../../arm-none-eabi/lib/thumb/v7e-m+fp/hard/libc_nano.a(lib_a-makebuf.o)
 .data          0x0000000000000000        0x0 /usr/lib/gcc/arm-none-eabi/9.2.1/../../../arm-none-eabi/lib/thumb/v7e-m+fp/hard/libc_nano.a(lib_a-memchr.o)
 .bss           0x0000000000000000        0x0 /usr/lib/gcc/arm-none-eabi/9.2.1/../../../arm-none-eabi/lib/thumb/v7e-m+fp/hard/libc_nano.a(lib_a-memchr.o)
 .data          0x0000000000000000        0x0 /usr/lib/gcc/arm-none-eabi/9.2.1/../../../arm-none-eabi/lib/thumb/v7e-m+fp/hard/libc_nano.a(lib_a-memmove.o)
 .bss           0x0000000000000000        0x0 /usr/lib/gcc/arm-none-eabi/9.2.1/../../../arm-none-eabi/lib/thumb/v7e-m+fp/hard/libc_nano.a(lib_a-memmove.o)
 .data          0x0000000000000000        0x0 /usr/lib/gcc/arm-none-eabi/9.2.1/../../../arm-none-eabi/lib/thumb/v7e-m+fp/hard/libc_nano.a(lib_a-mlock.o)
 .bss           0x0000000000000000        0x0 /usr/lib/gcc/arm-none-eabi/9.2.1/../../../arm-none-eabi/lib/thumb/v7e-m+fp/hard/libc_nano.a(lib_a-mlock.o)
 .data          0x0000000000000000        0x0 /usr/lib/gcc/arm-none-eabi/9.2.1/../../../arm-none-eabi/lib/thumb/v7e-m+fp/hard/libc_nano.a(lib_a-nano-reallocr.o)
 .bss           0x0000000000000000        0x0 /usr/lib/gcc/arm-none-eabi/9.2.1/../../../arm-none-eabi/lib/thumb/v7e-m+fp/hard/libc_nano.a(lib_a-nano-reallocr.o)
 .text          0x0000000000000000       0xe8 /usr/lib/gcc/arm-none-eabi/9.2.1/../../../arm-none-eabi/lib/thumb/v7e-m+fp/hard/libc_nano.a(lib_a-reent.o)
 .data          0x0000000000000000        0x0 /usr/lib/gcc/arm-none-eabi/9.2.1/../../../arm-none-eabi/lib/thumb/v7e-m+fp/hard/libc_nano.a(lib_a-reent.o)
 .bss           0x0000000000000000        0x0 /usr/lib/gcc/arm-none-eabi/9.2.1/../../../arm-none-eabi/lib/thumb/v7e-m+fp/hard/libc_nano.a(lib_a-reent.o)
 .data          0x0000000000000000        0x0 /usr/lib/gcc/arm-none-eabi/9.2.1/../../../arm-none-eabi/lib/thumb/v7e-m+fp/hard/libc_nano.a(lib_a-signal.o)
 .bss           0x0000000000000000        0x0 /usr/lib/gcc/arm-none-eabi/9.2.1/../../../arm-none-eabi/lib/thumb/v7e-m+fp/hard/libc_nano.a(lib_a-signal.o)
 .data          0x0000000000000000        0x0 /usr/lib/gcc/arm-none-eabi/9.2.1/../../../arm-none-eabi/lib/thumb/v7e-m+fp/hard/libc_nano.a(lib_a-signalr.o)
 .bss           0x0000000000000000        0x0 /usr/lib/gcc/arm-none-eabi/9.2.1/../../../arm-none-eabi/lib/thumb/v7e-m+fp/hard/libc_nano.a(lib_a-signalr.o)
 .data          0x0000000000000000        0x0 /usr/lib/gcc/arm-none-eabi/9.2.1/../../../arm-none-eabi/lib/thumb/v7e-m+fp/hard/libc_nano.a(lib_a-stdio.o)
 .bss           0x0000000000000000        0x0 /usr/lib/gcc/arm-none-eabi/9.2.1/../../../arm-none-eabi/lib/thumb/v7e-m+fp/hard/libc_nano.a(lib_a-stdio.o)
 .data          0x0000000000000000        0x0 /usr/lib/gcc/arm-none-eabi/9.2.1/../../../arm-none-eabi/lib/thumb/v7e-m+fp/hard/libc_nano.a(lib_a-writer.o)
 .bss           0x0000000000000000        0x0 /usr/lib/gcc/arm-none-eabi/9.2.1/../../../arm-none-eabi/lib/thumb/v7e-m+fp/hard/libc_nano.a(lib_a-writer.o)
 .data          0x0000000000000000        0x0 /usr/lib/gcc/arm-none-eabi/9.2.1/../../../arm-none-eabi/lib/thumb/v7e-m+fp/hard/libc_nano.a(lib_a-closer.o)
 .bss           0x0000000000000000        0x0 /usr/lib/gcc/arm-none-eabi/9.2.1/../../../arm-none-eabi/lib/thumb/v7e-m+fp/hard/libc_nano.a(lib_a-closer.o)
 .data          0x0000000000000000        0x0 /usr/lib/gcc/arm-none-eabi/9.2.1/../../../arm-none-eabi/lib/thumb/v7e-m+fp/hard/libc_nano.a(lib_a-fstatr.o)
 .bss           0x0000000000000000        0x0 /usr/lib/gcc/arm-none-eabi/9.2.1/../../../arm-none-eabi/lib/thumb/v7e-m+fp/hard/libc_nano.a(lib_a-fstatr.o)
 .data          0x0000000000000000        0x0 /usr/lib/gcc/arm-none-eabi/9.2.1/../../../arm-none-eabi/lib/thumb/v7e-m+fp/hard/libc_nano.a(lib_a-isattyr.o)
 .bss           0x0000000000000000        0x0 /usr/lib/gcc/arm-none-eabi/9.2.1/../../../arm-none-eabi/lib/thumb/v7e-m+fp/hard/libc_nano.a(lib_a-isattyr.o)
 .data          0x0000000000000000        0x0 /usr/lib/gcc/arm-none-eabi/9.2.1/../../../arm-none-eabi/lib/thumb/v7e-m+fp/hard/libc_nano.a(lib_a-lseekr.o)
 .bss           0x0000000000000000        0x0 /usr/lib/gcc/arm-none-eabi/9.2.1/../../../arm-none-eabi/lib/thumb/v7e-m+fp/hard/libc_nano.a(lib_a-lseekr.o)
 .data          0x0000000000000000        0x0 /usr/lib/gcc/arm-none-eabi/9.2.1/../../../arm-none-eabi/lib/thumb/v7e-m+fp/hard/libc_nano.a(lib_a-nano-msizer.o)
 .bss           0x0000000000000000        0x0 /usr/lib/gcc/arm-none-eabi/9.2.1/../../../arm-none-eabi/lib/thumb/v7e-m+fp/hard/libc_nano.a(lib_a-nano-msizer.o)
 .data          0x0000000000000000        0x0 /usr/lib/gcc/arm-none-eabi/9.2.1/../../../arm-none-eabi/lib/thumb/v7e-m+fp/hard/libc_nano.a(lib_a-readr.o)
 .bss           0x0000000000000000        0x0 /usr/lib/gcc/arm-none-eabi/9.2.1/../../../arm-none-eabi/lib/thumb/v7e-m+fp/hard/libc_nano.a(lib_a-readr.o)
 .text          0x0000000000000000        0x0 /usr/lib/gcc/arm-none-eabi/9.2.1/thumb/v7e-m+fp/hard/crtend.o
 .data          0x0000000000000000        0x0 /usr/lib/gcc/arm-none-eabi/9.2.1/thumb/v7e-m+fp/hard/crtend.o
 .bss           0x0000000000000000        0x0 /usr/lib/gcc/arm-none-eabi/9.2.1/thumb/v7e-m+fp/hard/crtend.o
 .eh_frame      0x0000000000000000        0x4 /usr/lib/gcc/arm-none-eabi/9.2.1/thumb/v7e-m+fp/hard/crtend.o
 .text          0x0000000000000000        0x0 /usr/lib/gcc/arm-none-eabi/9.2.1/thumb/v7e-m+fp/hard/crtn.o
 .data          0x0000000000000000        0x0 /usr/lib/gcc/arm-none-eabi/9.2.1/thumb/v7e-m+fp/hard/crtn.o
 .bss           0x0000000000000000        0x0 /usr/lib/gcc/arm-none-eabi/9.2.1/thumb/v7e-m+fp/hard/crtn.o

Memory Configuration

Name             Origin             Length             Attributes
RAM              0x0000000020000000 0x0000000000008000 xrw
FLASH            0x0000000008000000 0x0000000000020000 xr
*default*        0x0000000000000000 0xffffffffffffffff

Linker script and memory map

LOAD /usr/lib/gcc/arm-none-eabi/9.2.1/thumb/v7e-m+fp/hard/crti.o
LOAD /usr/lib/gcc/arm-none-eabi/9.2.1/thumb/v7e-m+fp/hard/crtbegin.o
LOAD /usr/lib/gcc/arm-none-eabi/9.2.1/../../../arm-none-eabi/lib/thumb/v7e-m+fp/hard/crt0.o
LOAD /usr/lib/gcc/arm-none-eabi/9.2.1/../../../arm-none-eabi/lib/thumb/v7e-m+fp/hard/libc_nano.a
LOAD /usr/lib/gcc/arm-none-eabi/9.2.1/../../../arm-none-eabi/lib/thumb/v7e-m+fp/hard/libm.a
LOAD /usr/lib/gcc/arm-none-eabi/9.2.1/../../../arm-none-eabi/lib/thumb/v7e-m+fp/hard/libnosys.a
LOAD /mnt/d/Marcelo/bitbucket/mcuboot/mcuboot/boot/bootutil/src/boot_record.o
LOAD /mnt/d/Marcelo/bitbucket/mcuboot/mcuboot/boot/bootutil/src/bootutil_misc.o
LOAD /mnt/d/Marcelo/bitbucket/mcuboot/mcuboot/boot/bootutil/src/bootutil_public.o
LOAD /mnt/d/Marcelo/bitbucket/mcuboot/mcuboot/boot/bootutil/src/caps.o
LOAD /mnt/d/Marcelo/bitbucket/mcuboot/mcuboot/boot/bootutil/src/encrypted.o
LOAD /mnt/d/Marcelo/bitbucket/mcuboot/mcuboot/boot/bootutil/src/fault_injection_hardening.o
LOAD /mnt/d/Marcelo/bitbucket/mcuboot/mcuboot/boot/bootutil/src/fault_injection_hardening_delay_rng_mbedtls.o
LOAD /mnt/d/Marcelo/bitbucket/mcuboot/mcuboot/boot/bootutil/src/image_ec.o
LOAD /mnt/d/Marcelo/bitbucket/mcuboot/mcuboot/boot/bootutil/src/image_ec256.o
LOAD /mnt/d/Marcelo/bitbucket/mcuboot/mcuboot/boot/bootutil/src/image_ed25519.o
LOAD /mnt/d/Marcelo/bitbucket/mcuboot/mcuboot/boot/bootutil/src/image_rsa.o
LOAD /mnt/d/Marcelo/bitbucket/mcuboot/mcuboot/boot/bootutil/src/image_validate.o
LOAD /mnt/d/Marcelo/bitbucket/mcuboot/mcuboot/boot/bootutil/src/loader.o
LOAD /mnt/d/Marcelo/bitbucket/mcuboot/mcuboot/boot/bootutil/src/swap_misc.o
LOAD /mnt/d/Marcelo/bitbucket/mcuboot/mcuboot/boot/bootutil/src/swap_move.o
LOAD /mnt/d/Marcelo/bitbucket/mcuboot/mcuboot/boot/bootutil/src/swap_scratch.o
LOAD /mnt/d/Marcelo/bitbucket/mcuboot/mcuboot/boot/bootutil/src/tlv.o
LOAD mcuboot_main.o
LOAD hal/Core/Src/main.o
LOAD hal/Core/Src/stm32g4xx_it.o
LOAD hal/Core/Src/stm32g4xx_hal_msp.o
LOAD hal/Core/Src/system_stm32g4xx.o
LOAD hal/startup_stm32g431xx.o
LOAD hal/Drivers/STM32G4xx_HAL_Driver/Src/stm32g4xx_hal_tim.o
LOAD hal/Drivers/STM32G4xx_HAL_Driver/Src/stm32g4xx_hal_tim_ex.o
LOAD hal/Drivers/STM32G4xx_HAL_Driver/Src/stm32g4xx_hal_pwr_ex.o
LOAD hal/Drivers/STM32G4xx_HAL_Driver/Src/stm32g4xx_hal_uart.o
LOAD hal/Drivers/STM32G4xx_HAL_Driver/Src/stm32g4xx_hal_uart_ex.o
LOAD hal/Drivers/STM32G4xx_HAL_Driver/Src/stm32g4xx_hal.o
LOAD hal/Drivers/STM32G4xx_HAL_Driver/Src/stm32g4xx_hal_rcc.o
LOAD hal/Drivers/STM32G4xx_HAL_Driver/Src/stm32g4xx_hal_rcc_ex.o
LOAD hal/Drivers/STM32G4xx_HAL_Driver/Src/stm32g4xx_hal_flash.o
LOAD hal/Drivers/STM32G4xx_HAL_Driver/Src/stm32g4xx_hal_flash_ex.o
LOAD hal/Drivers/STM32G4xx_HAL_Driver/Src/stm32g4xx_hal_flash_ramfunc.o
LOAD hal/Drivers/STM32G4xx_HAL_Driver/Src/stm32g4xx_hal_gpio.o
LOAD hal/Drivers/STM32G4xx_HAL_Driver/Src/stm32g4xx_hal_exti.o
LOAD hal/Drivers/STM32G4xx_HAL_Driver/Src/stm32g4xx_hal_dma.o
LOAD hal/Drivers/STM32G4xx_HAL_Driver/Src/stm32g4xx_hal_dma_ex.o
LOAD hal/Drivers/STM32G4xx_HAL_Driver/Src/stm32g4xx_hal_pwr.o
LOAD hal/Drivers/STM32G4xx_HAL_Driver/Src/stm32g4xx_hal_cortex.o
START GROUP
LOAD /usr/lib/gcc/arm-none-eabi/9.2.1/thumb/v7e-m+fp/hard/libgcc.a
LOAD /usr/lib/gcc/arm-none-eabi/9.2.1/../../../arm-none-eabi/lib/thumb/v7e-m+fp/hard/libc_nano.a
END GROUP
START GROUP
LOAD /usr/lib/gcc/arm-none-eabi/9.2.1/thumb/v7e-m+fp/hard/libgcc.a
LOAD /usr/lib/gcc/arm-none-eabi/9.2.1/../../../arm-none-eabi/lib/thumb/v7e-m+fp/hard/libc_nano.a
END GROUP
LOAD /usr/lib/gcc/arm-none-eabi/9.2.1/thumb/v7e-m+fp/hard/crtend.o
LOAD /usr/lib/gcc/arm-none-eabi/9.2.1/thumb/v7e-m+fp/hard/crtn.o
                0x0000000020008000                _estack = 0x20008000
                0x0000000000000200                _Min_Heap_Size = 0x200
                0x0000000000000400                _Min_Stack_Size = 0x400

.isr_vector     0x0000000008000000      0x1d8
                0x0000000008000000                . = ALIGN (0x4)
 *(.isr_vector)
 .isr_vector    0x0000000008000000      0x1d8 hal/startup_stm32g431xx.o
                0x0000000008000000                g_pfnVectors
                0x00000000080001d8                . = ALIGN (0x4)

.text           0x00000000080001e0     0x7464
                0x00000000080001e0                . = ALIGN (0x4)
 *(.text)
 .text          0x00000000080001e0       0x88 /usr/lib/gcc/arm-none-eabi/9.2.1/thumb/v7e-m+fp/hard/crtbegin.o
 .text          0x0000000008000268       0x48 /usr/lib/gcc/arm-none-eabi/9.2.1/../../../arm-none-eabi/lib/thumb/v7e-m+fp/hard/libc_nano.a(lib_a-init.o)
                0x0000000008000268                __libc_init_array
 .text          0x00000000080002b0       0xa0 /usr/lib/gcc/arm-none-eabi/9.2.1/../../../arm-none-eabi/lib/thumb/v7e-m+fp/hard/libc_nano.a(lib_a-memset.o)
                0x00000000080002b0                memset
 .text          0x0000000008000350        0x4 /usr/lib/gcc/arm-none-eabi/9.2.1/../../../arm-none-eabi/lib/thumb/v7e-m+fp/hard/libnosys.a(_exit.o)
                0x0000000008000350                _exit
 .text          0x0000000008000354       0x30 /usr/lib/gcc/arm-none-eabi/9.2.1/thumb/v7e-m+fp/hard/libgcc.a(_aeabi_uldivmod.o)
                0x0000000008000354                __aeabi_uldivmod
 .text          0x0000000008000384      0x2c4 /usr/lib/gcc/arm-none-eabi/9.2.1/thumb/v7e-m+fp/hard/libgcc.a(_udivmoddi4.o)
                0x0000000008000384                __udivmoddi4
 .text          0x0000000008000648        0x4 /usr/lib/gcc/arm-none-eabi/9.2.1/thumb/v7e-m+fp/hard/libgcc.a(_dvmd_tls.o)
                0x0000000008000648                __aeabi_ldiv0
                0x0000000008000648                __aeabi_idiv0
 .text          0x000000000800064c       0x48 /usr/lib/gcc/arm-none-eabi/9.2.1/../../../arm-none-eabi/lib/thumb/v7e-m+fp/hard/libc_nano.a(lib_a-assert.o)
                0x000000000800064c                __assert_func
                0x0000000008000688                __assert
 .text          0x0000000008000694       0x44 /usr/lib/gcc/arm-none-eabi/9.2.1/../../../arm-none-eabi/lib/thumb/v7e-m+fp/hard/libc_nano.a(lib_a-fprintf.o)
                0x0000000008000694                _fprintf_r
                0x0000000008000694                _fiprintf_r
                0x00000000080006b0                fprintf
                0x00000000080006b0                fiprintf
 .text          0x00000000080006d8       0x60 /usr/lib/gcc/arm-none-eabi/9.2.1/../../../arm-none-eabi/lib/thumb/v7e-m+fp/hard/libc_nano.a(lib_a-memcmp.o)
                0x00000000080006d8                memcmp
 .text          0x0000000008000738      0x134 /usr/lib/gcc/arm-none-eabi/9.2.1/../../../arm-none-eabi/lib/thumb/v7e-m+fp/hard/libc_nano.a(lib_a-memcpy.o)
                0x0000000008000738                memcpy
 .text          0x000000000800086c       0xac /usr/lib/gcc/arm-none-eabi/9.2.1/../../../arm-none-eabi/lib/thumb/v7e-m+fp/hard/libc_nano.a(lib_a-nano-freer.o)
                0x000000000800086c                _free_r
 .text          0x0000000008000918       0xc8 /usr/lib/gcc/arm-none-eabi/9.2.1/../../../arm-none-eabi/lib/thumb/v7e-m+fp/hard/libc_nano.a(lib_a-nano-mallocr.o)
                0x0000000008000918                _malloc_r
 .text          0x00000000080009e0      0x364 /usr/lib/gcc/arm-none-eabi/9.2.1/../../../arm-none-eabi/lib/thumb/v7e-m+fp/hard/libc_nano.a(lib_a-nano-vfprintf.o)
                0x0000000008000a1c                __sfputs_r
                0x0000000008000a4c                __sprint_r
                0x0000000008000a68                _vfiprintf_r
                0x0000000008000a68                _vfprintf_r
                0x0000000008000d2c                vfiprintf
                0x0000000008000d2c                vfprintf
 .text          0x0000000008000d44      0x3c4 /usr/lib/gcc/arm-none-eabi/9.2.1/../../../arm-none-eabi/lib/thumb/v7e-m+fp/hard/libc_nano.a(lib_a-nano-vfprintf_i.o)
                0x0000000008000d44                _printf_common
                0x0000000008000e70                _printf_i
 .text          0x0000000008001108       0x68 /usr/lib/gcc/arm-none-eabi/9.2.1/../../../arm-none-eabi/lib/thumb/v7e-m+fp/hard/libc_nano.a(lib_a-printf.o)
                0x0000000008001108                _printf_r
                0x0000000008001108                _iprintf_r
                0x0000000008001138                printf
                0x0000000008001138                iprintf
 .text          0x0000000008001170       0x24 /usr/lib/gcc/arm-none-eabi/9.2.1/../../../arm-none-eabi/lib/thumb/v7e-m+fp/hard/libc_nano.a(lib_a-sbrkr.o)
                0x0000000008001170                _sbrk_r
 .text          0x0000000008001194       0xc0 /usr/lib/gcc/arm-none-eabi/9.2.1/../../../arm-none-eabi/lib/thumb/v7e-m+fp/hard/libc_nano.a(lib_a-wbuf.o)
                0x0000000008001194                __swbuf_r
                0x0000000008001244                __swbuf
 .text          0x0000000008001254      0x100 /usr/lib/gcc/arm-none-eabi/9.2.1/../../../arm-none-eabi/lib/thumb/v7e-m+fp/hard/libc_nano.a(lib_a-wsetup.o)
                0x0000000008001254                __swsetup_r
 .text          0x0000000008001354       0x10 /usr/lib/gcc/arm-none-eabi/9.2.1/../../../arm-none-eabi/lib/thumb/v7e-m+fp/hard/libc_nano.a(lib_a-abort.o)
                0x0000000008001354                abort
 .text          0x0000000008001364      0x1b0 /usr/lib/gcc/arm-none-eabi/9.2.1/../../../arm-none-eabi/lib/thumb/v7e-m+fp/hard/libc_nano.a(lib_a-fflush.o)
                0x0000000008001364                __sflush_r
                0x0000000008001490                _fflush_r
                0x00000000080014f0                fflush
 .text          0x0000000008001514      0x210 /usr/lib/gcc/arm-none-eabi/9.2.1/../../../arm-none-eabi/lib/thumb/v7e-m+fp/hard/libc_nano.a(lib_a-findfp.o)
                0x0000000008001518                _cleanup_r
                0x0000000008001528                __sfmoreglue
                0x0000000008001558                __sfp
                0x00000000080016d0                _cleanup
                0x00000000080016e4                __sinit
                0x00000000080016ec                __sfp_lock_acquire
                0x00000000080016f0                __sfp_lock_release
                0x00000000080016f4                __sinit_lock_acquire
                0x00000000080016f8                __sinit_lock_release
                0x00000000080016fc                __fp_lock_all
                0x0000000008001710                __fp_unlock_all
 .text          0x0000000008001724      0x308 /usr/lib/gcc/arm-none-eabi/9.2.1/../../../arm-none-eabi/lib/thumb/v7e-m+fp/hard/libc_nano.a(lib_a-fvwrite.o)
                0x0000000008001724                __sfvwrite_r
 .text          0x0000000008001a2c       0xa0 /usr/lib/gcc/arm-none-eabi/9.2.1/../../../arm-none-eabi/lib/thumb/v7e-m+fp/hard/libc_nano.a(lib_a-fwalk.o)
                0x0000000008001a2c                _fwalk
                0x0000000008001a78                _fwalk_reent
 .text          0x0000000008001acc       0xf0 /usr/lib/gcc/arm-none-eabi/9.2.1/../../../arm-none-eabi/lib/thumb/v7e-m+fp/hard/libc_nano.a(lib_a-makebuf.o)
                0x0000000008001acc                __swhatbuf_r
                0x0000000008001b28                __smakebuf_r
 *fill*         0x0000000008001bbc        0x4 
 .text          0x0000000008001bc0       0xa0 /usr/lib/gcc/arm-none-eabi/9.2.1/../../../arm-none-eabi/lib/thumb/v7e-m+fp/hard/libc_nano.a(lib_a-memchr.o)
                0x0000000008001bc0                memchr
 .text          0x0000000008001c60       0xd0 /usr/lib/gcc/arm-none-eabi/9.2.1/../../../arm-none-eabi/lib/thumb/v7e-m+fp/hard/libc_nano.a(lib_a-memmove.o)
                0x0000000008001c60                memmove
 .text          0x0000000008001d30        0x8 /usr/lib/gcc/arm-none-eabi/9.2.1/../../../arm-none-eabi/lib/thumb/v7e-m+fp/hard/libc_nano.a(lib_a-mlock.o)
                0x0000000008001d30                __malloc_lock
                0x0000000008001d34                __malloc_unlock
 .text          0x0000000008001d38       0x4c /usr/lib/gcc/arm-none-eabi/9.2.1/../../../arm-none-eabi/lib/thumb/v7e-m+fp/hard/libc_nano.a(lib_a-nano-reallocr.o)
                0x0000000008001d38                _realloc_r
 .text          0x0000000008001d84      0x150 /usr/lib/gcc/arm-none-eabi/9.2.1/../../../arm-none-eabi/lib/thumb/v7e-m+fp/hard/libc_nano.a(lib_a-signal.o)
                0x0000000008001dac                _init_signal_r
                0x0000000008001db8                _signal_r
                0x0000000008001dec                _raise_r
                0x0000000008001e40                __sigtramp_r
                0x0000000008001e90                raise
                0x0000000008001ea0                signal
                0x0000000008001eb0                _init_signal
                0x0000000008001ec4                __sigtramp
 .text          0x0000000008001ed4       0x2c /usr/lib/gcc/arm-none-eabi/9.2.1/../../../arm-none-eabi/lib/thumb/v7e-m+fp/hard/libc_nano.a(lib_a-signalr.o)
                0x0000000008001ed4                _kill_r
                0x0000000008001efc                _getpid_r
 .text          0x0000000008001f00       0x90 /usr/lib/gcc/arm-none-eabi/9.2.1/../../../arm-none-eabi/lib/thumb/v7e-m+fp/hard/libc_nano.a(lib_a-stdio.o)
                0x0000000008001f00                __sread
                0x0000000008001f24                __seofread
                0x0000000008001f28                __swrite
                0x0000000008001f68                __sseek
                0x0000000008001f88                __sclose
 .text          0x0000000008001f90       0x2c /usr/lib/gcc/arm-none-eabi/9.2.1/../../../arm-none-eabi/lib/thumb/v7e-m+fp/hard/libc_nano.a(lib_a-writer.o)
                0x0000000008001f90                _write_r
 .text          0x0000000008001fbc       0x24 /usr/lib/gcc/arm-none-eabi/9.2.1/../../../arm-none-eabi/lib/thumb/v7e-m+fp/hard/libc_nano.a(lib_a-closer.o)
                0x0000000008001fbc                _close_r
 .text          0x0000000008001fe0       0x28 /usr/lib/gcc/arm-none-eabi/9.2.1/../../../arm-none-eabi/lib/thumb/v7e-m+fp/hard/libc_nano.a(lib_a-fstatr.o)
                0x0000000008001fe0                _fstat_r
 .text          0x0000000008002008       0x24 /usr/lib/gcc/arm-none-eabi/9.2.1/../../../arm-none-eabi/lib/thumb/v7e-m+fp/hard/libc_nano.a(lib_a-isattyr.o)
                0x0000000008002008                _isatty_r
 .text          0x000000000800202c       0x2c /usr/lib/gcc/arm-none-eabi/9.2.1/../../../arm-none-eabi/lib/thumb/v7e-m+fp/hard/libc_nano.a(lib_a-lseekr.o)
                0x000000000800202c                _lseek_r
 .text          0x0000000008002058       0x10 /usr/lib/gcc/arm-none-eabi/9.2.1/../../../arm-none-eabi/lib/thumb/v7e-m+fp/hard/libc_nano.a(lib_a-nano-msizer.o)
                0x0000000008002058                _malloc_usable_size_r
 .text          0x0000000008002068       0x2c /usr/lib/gcc/arm-none-eabi/9.2.1/../../../arm-none-eabi/lib/thumb/v7e-m+fp/hard/libc_nano.a(lib_a-readr.o)
                0x0000000008002068                _read_r
 *(.text*)
 .text.flash_area_get_id
                0x0000000008002094       0x18 /mnt/d/Marcelo/bitbucket/mcuboot/mcuboot/boot/bootutil/src/bootutil_misc.o
 .text.flash_area_get_size
                0x00000000080020ac       0x18 /mnt/d/Marcelo/bitbucket/mcuboot/mcuboot/boot/bootutil/src/bootutil_misc.o
 .text.boot_fih_memequal
                0x00000000080020c4       0x20 /mnt/d/Marcelo/bitbucket/mcuboot/mcuboot/boot/bootutil/src/bootutil_misc.o
                0x00000000080020c4                boot_fih_memequal
 .text.boot_status_sz
                0x00000000080020e4       0x1e /mnt/d/Marcelo/bitbucket/mcuboot/mcuboot/boot/bootutil/src/bootutil_misc.o
                0x00000000080020e4                boot_status_sz
 .text.boot_trailer_sz
                0x0000000008002102       0x1a /mnt/d/Marcelo/bitbucket/mcuboot/mcuboot/boot/bootutil/src/bootutil_misc.o
                0x0000000008002102                boot_trailer_sz
 .text.boot_status_entries
                0x000000000800211c       0x42 /mnt/d/Marcelo/bitbucket/mcuboot/mcuboot/boot/bootutil/src/bootutil_misc.o
                0x000000000800211c                boot_status_entries
 *fill*         0x000000000800215e        0x2 
 .text.boot_status_off
                0x0000000008002160       0x58 /mnt/d/Marcelo/bitbucket/mcuboot/mcuboot/boot/bootutil/src/bootutil_misc.o
                0x0000000008002160                boot_status_off
 .text.boot_magic_off
                0x00000000080021b8       0x1a /mnt/d/Marcelo/bitbucket/mcuboot/mcuboot/boot/bootutil/src/bootutil_misc.o
 .text.boot_image_ok_off
                0x00000000080021d2       0x1a /mnt/d/Marcelo/bitbucket/mcuboot/mcuboot/boot/bootutil/src/bootutil_misc.o
 .text.boot_copy_done_off
                0x00000000080021ec       0x1a /mnt/d/Marcelo/bitbucket/mcuboot/mcuboot/boot/bootutil/src/bootutil_misc.o
 .text.boot_swap_size_off
                0x0000000008002206       0x1a /mnt/d/Marcelo/bitbucket/mcuboot/mcuboot/boot/bootutil/src/bootutil_misc.o
 .text.boot_find_status
                0x0000000008002220       0xa4 /mnt/d/Marcelo/bitbucket/mcuboot/mcuboot/boot/bootutil/src/bootutil_misc.o
 .text.boot_read_swap_size
                0x00000000080022c4       0x48 /mnt/d/Marcelo/bitbucket/mcuboot/mcuboot/boot/bootutil/src/bootutil_misc.o
                0x00000000080022c4                boot_read_swap_size
 .text.boot_write_copy_done
                0x000000000800230c       0x24 /mnt/d/Marcelo/bitbucket/mcuboot/mcuboot/boot/bootutil/src/bootutil_misc.o
                0x000000000800230c                boot_write_copy_done
 .text.boot_write_swap_size
                0x0000000008002330       0x28 /mnt/d/Marcelo/bitbucket/mcuboot/mcuboot/boot/bootutil/src/bootutil_misc.o
                0x0000000008002330                boot_write_swap_size
 .text.flash_area_get_size
                0x0000000008002358       0x18 /mnt/d/Marcelo/bitbucket/mcuboot/mcuboot/boot/bootutil/src/bootutil_public.o
 .text.boot_magic_decode
                0x0000000008002370       0x2c /mnt/d/Marcelo/bitbucket/mcuboot/mcuboot/boot/bootutil/src/bootutil_public.o
 .text.boot_flag_decode
                0x000000000800239c       0x22 /mnt/d/Marcelo/bitbucket/mcuboot/mcuboot/boot/bootutil/src/bootutil_public.o
 .text.boot_magic_off
                0x00000000080023be       0x1a /mnt/d/Marcelo/bitbucket/mcuboot/mcuboot/boot/bootutil/src/bootutil_public.o
 .text.boot_image_ok_off
                0x00000000080023d8       0x1a /mnt/d/Marcelo/bitbucket/mcuboot/mcuboot/boot/bootutil/src/bootutil_public.o
 .text.boot_copy_done_off
                0x00000000080023f2       0x1a /mnt/d/Marcelo/bitbucket/mcuboot/mcuboot/boot/bootutil/src/bootutil_public.o
 .text.boot_swap_info_off
                0x000000000800240c       0x1a /mnt/d/Marcelo/bitbucket/mcuboot/mcuboot/boot/bootutil/src/bootutil_public.o
                0x000000000800240c                boot_swap_info_off
 .text.boot_magic_compatible_check
                0x0000000008002426       0x48 /mnt/d/Marcelo/bitbucket/mcuboot/mcuboot/boot/bootutil/src/bootutil_public.o
                0x0000000008002426                boot_magic_compatible_check
 .text.bootutil_buffer_is_erased
                0x000000000800246e       0x5a /mnt/d/Marcelo/bitbucket/mcuboot/mcuboot/boot/bootutil/src/bootutil_public.o
                0x000000000800246e                bootutil_buffer_is_erased
 .text.boot_read_flag
                0x00000000080024c8       0x58 /mnt/d/Marcelo/bitbucket/mcuboot/mcuboot/boot/bootutil/src/bootutil_public.o
 .text.boot_read_copy_done
                0x0000000008002520       0x26 /mnt/d/Marcelo/bitbucket/mcuboot/mcuboot/boot/bootutil/src/bootutil_public.o
 .text.boot_read_swap_state
                0x0000000008002546       0xe8 /mnt/d/Marcelo/bitbucket/mcuboot/mcuboot/boot/bootutil/src/bootutil_public.o
                0x0000000008002546                boot_read_swap_state
 .text.boot_read_swap_state_by_id
                0x000000000800262e       0x44 /mnt/d/Marcelo/bitbucket/mcuboot/mcuboot/boot/bootutil/src/bootutil_public.o
                0x000000000800262e                boot_read_swap_state_by_id
 *fill*         0x0000000008002672        0x2 
 .text.boot_write_magic
                0x0000000008002674       0x38 /mnt/d/Marcelo/bitbucket/mcuboot/mcuboot/boot/bootutil/src/bootutil_public.o
                0x0000000008002674                boot_write_magic
 .text.boot_write_trailer
                0x00000000080026ac       0x92 /mnt/d/Marcelo/bitbucket/mcuboot/mcuboot/boot/bootutil/src/bootutil_public.o
                0x00000000080026ac                boot_write_trailer
 .text.boot_write_trailer_flag
                0x000000000800273e       0x2a /mnt/d/Marcelo/bitbucket/mcuboot/mcuboot/boot/bootutil/src/bootutil_public.o
                0x000000000800273e                boot_write_trailer_flag
 .text.boot_write_image_ok
                0x0000000008002768       0x24 /mnt/d/Marcelo/bitbucket/mcuboot/mcuboot/boot/bootutil/src/bootutil_public.o
                0x0000000008002768                boot_write_image_ok
 .text.boot_read_image_ok
                0x000000000800278c       0x26 /mnt/d/Marcelo/bitbucket/mcuboot/mcuboot/boot/bootutil/src/bootutil_public.o
                0x000000000800278c                boot_read_image_ok
 *fill*         0x00000000080027b2        0x2 
 .text.boot_write_swap_info
                0x00000000080027b4       0x7c /mnt/d/Marcelo/bitbucket/mcuboot/mcuboot/boot/bootutil/src/bootutil_public.o
                0x00000000080027b4                boot_write_swap_info
 .text.boot_swap_type_multi
                0x0000000008002830      0x168 /mnt/d/Marcelo/bitbucket/mcuboot/mcuboot/boot/bootutil/src/bootutil_public.o
                0x0000000008002830                boot_swap_type_multi
 .text.bootutil_ecdsa_p256_init
                0x0000000008002998       0x16 /mnt/d/Marcelo/bitbucket/mcuboot/mcuboot/boot/bootutil/src/image_ec256.o
 .text.bootutil_ecdsa_p256_drop
                0x00000000080029ae       0x16 /mnt/d/Marcelo/bitbucket/mcuboot/mcuboot/boot/bootutil/src/image_ec256.o
 .text.bootutil_ecdsa_p256_verify
                0x00000000080029c4       0x88 /mnt/d/Marcelo/bitbucket/mcuboot/mcuboot/boot/bootutil/src/image_ec256.o
 .text.bootutil_import_key
                0x0000000008002a4c       0xd4 /mnt/d/Marcelo/bitbucket/mcuboot/mcuboot/boot/bootutil/src/image_ec256.o
 .text.bootutil_verify_sig
                0x0000000008002b20       0xa4 /mnt/d/Marcelo/bitbucket/mcuboot/mcuboot/boot/bootutil/src/image_ec256.o
                0x0000000008002b20                bootutil_verify_sig
 .text.bootutil_sha256_init
                0x0000000008002bc4       0x1e /mnt/d/Marcelo/bitbucket/mcuboot/mcuboot/boot/bootutil/src/image_validate.o
 .text.bootutil_sha256_drop
                0x0000000008002be2       0x14 /mnt/d/Marcelo/bitbucket/mcuboot/mcuboot/boot/bootutil/src/image_validate.o
 .text.bootutil_sha256_update
                0x0000000008002bf6       0x20 /mnt/d/Marcelo/bitbucket/mcuboot/mcuboot/boot/bootutil/src/image_validate.o
 .text.bootutil_sha256_finish
                0x0000000008002c16       0x1c /mnt/d/Marcelo/bitbucket/mcuboot/mcuboot/boot/bootutil/src/image_validate.o
 .text.bootutil_img_hash
                0x0000000008002c32      0x116 /mnt/d/Marcelo/bitbucket/mcuboot/mcuboot/boot/bootutil/src/image_validate.o
 .text.bootutil_find_key
                0x0000000008002d48       0xb8 /mnt/d/Marcelo/bitbucket/mcuboot/mcuboot/boot/bootutil/src/image_validate.o
 .text.bootutil_img_validate
                0x0000000008002e00      0x304 /mnt/d/Marcelo/bitbucket/mcuboot/mcuboot/boot/bootutil/src/image_validate.o
                0x0000000008002e00                bootutil_img_validate
 .text.flash_area_get_device_id
                0x0000000008003104       0x18 /mnt/d/Marcelo/bitbucket/mcuboot/mcuboot/boot/bootutil/src/loader.o
 .text.flash_area_get_off
                0x000000000800311c       0x18 /mnt/d/Marcelo/bitbucket/mcuboot/mcuboot/boot/bootutil/src/loader.o
 .text.flash_area_get_size
                0x0000000008003134       0x18 /mnt/d/Marcelo/bitbucket/mcuboot/mcuboot/boot/bootutil/src/loader.o
 .text.boot_u32_safe_add
                0x000000000800314c       0x32 /mnt/d/Marcelo/bitbucket/mcuboot/mcuboot/boot/bootutil/src/loader.o
 .text.boot_img_hdr
                0x000000000800317e       0x22 /mnt/d/Marcelo/bitbucket/mcuboot/mcuboot/boot/bootutil/src/loader.o
 .text.boot_img_slot_off
                0x00000000080031a0       0x2a /mnt/d/Marcelo/bitbucket/mcuboot/mcuboot/boot/bootutil/src/loader.o
 .text.boot_read_image_headers
                0x00000000080031ca       0x6c /mnt/d/Marcelo/bitbucket/mcuboot/mcuboot/boot/bootutil/src/loader.o
 .text.boot_add_shared_data
                0x0000000008003236       0x18 /mnt/d/Marcelo/bitbucket/mcuboot/mcuboot/boot/bootutil/src/loader.o
 .text.fill_rsp
                0x000000000800324e       0x52 /mnt/d/Marcelo/bitbucket/mcuboot/mcuboot/boot/bootutil/src/loader.o
 .text.close_all_flash_areas
                0x00000000080032a0       0x48 /mnt/d/Marcelo/bitbucket/mcuboot/mcuboot/boot/bootutil/src/loader.o
 .text.boot_read_image_size
                0x00000000080032e8       0xfa /mnt/d/Marcelo/bitbucket/mcuboot/mcuboot/boot/bootutil/src/loader.o
 .text.boot_write_sz
                0x00000000080033e2       0x3a /mnt/d/Marcelo/bitbucket/mcuboot/mcuboot/boot/bootutil/src/loader.o
 .text.boot_initialize_area
                0x000000000800341c       0x7c /mnt/d/Marcelo/bitbucket/mcuboot/mcuboot/boot/bootutil/src/loader.o
 .text.boot_read_sectors
                0x0000000008003498       0x5e /mnt/d/Marcelo/bitbucket/mcuboot/mcuboot/boot/bootutil/src/loader.o
 .text.boot_status_reset
                0x00000000080034f6       0x3e /mnt/d/Marcelo/bitbucket/mcuboot/mcuboot/boot/bootutil/src/loader.o
                0x00000000080034f6                boot_status_reset
 .text.boot_status_is_reset
                0x0000000008003534       0x38 /mnt/d/Marcelo/bitbucket/mcuboot/mcuboot/boot/bootutil/src/loader.o
                0x0000000008003534                boot_status_is_reset
 .text.boot_write_status
                0x000000000800356c       0xb4 /mnt/d/Marcelo/bitbucket/mcuboot/mcuboot/boot/bootutil/src/loader.o
                0x000000000800356c                boot_write_status
 .text.boot_image_check
                0x0000000008003620       0x5c /mnt/d/Marcelo/bitbucket/mcuboot/mcuboot/boot/bootutil/src/loader.o
 .text.boot_is_header_valid
                0x000000000800367c       0x5c /mnt/d/Marcelo/bitbucket/mcuboot/mcuboot/boot/bootutil/src/loader.o
 .text.boot_data_is_set_to
                0x00000000080036d8       0x46 /mnt/d/Marcelo/bitbucket/mcuboot/mcuboot/boot/bootutil/src/loader.o
 .text.boot_check_header_erased
                0x000000000800371e       0x7a /mnt/d/Marcelo/bitbucket/mcuboot/mcuboot/boot/bootutil/src/loader.o
 .text.boot_validate_slot
                0x0000000008003798      0x148 /mnt/d/Marcelo/bitbucket/mcuboot/mcuboot/boot/bootutil/src/loader.o
 .text.boot_validated_swap_type
                0x00000000080038e0       0x98 /mnt/d/Marcelo/bitbucket/mcuboot/mcuboot/boot/bootutil/src/loader.o
 .text.boot_erase_region
                0x0000000008003978       0x20 /mnt/d/Marcelo/bitbucket/mcuboot/mcuboot/boot/bootutil/src/loader.o
                0x0000000008003978                boot_erase_region
 .text.boot_copy_region
                0x0000000008003998       0x8c /mnt/d/Marcelo/bitbucket/mcuboot/mcuboot/boot/bootutil/src/loader.o
                0x0000000008003998                boot_copy_region
 .text.boot_swap_image
                0x0000000008003a24      0x114 /mnt/d/Marcelo/bitbucket/mcuboot/mcuboot/boot/bootutil/src/loader.o
 .text.boot_perform_update
                0x0000000008003b38       0x94 /mnt/d/Marcelo/bitbucket/mcuboot/mcuboot/boot/bootutil/src/loader.o
 .text.boot_complete_partial_swap
                0x0000000008003bcc       0xc4 /mnt/d/Marcelo/bitbucket/mcuboot/mcuboot/boot/bootutil/src/loader.o
 .text.boot_prepare_image_for_update
                0x0000000008003c90      0x180 /mnt/d/Marcelo/bitbucket/mcuboot/mcuboot/boot/bootutil/src/loader.o
 .text.boot_update_hw_rollback_protection
                0x0000000008003e10       0x16 /mnt/d/Marcelo/bitbucket/mcuboot/mcuboot/boot/bootutil/src/loader.o
 *fill*         0x0000000008003e26        0x2 
 .text.context_boot_go
                0x0000000008003e28      0x274 /mnt/d/Marcelo/bitbucket/mcuboot/mcuboot/boot/bootutil/src/loader.o
                0x0000000008003e28                context_boot_go
 .text.boot_go  0x000000000800409c       0x38 /mnt/d/Marcelo/bitbucket/mcuboot/mcuboot/boot/bootutil/src/loader.o
                0x000000000800409c                boot_go
 .text.flash_area_get_id
                0x00000000080040d4       0x18 /mnt/d/Marcelo/bitbucket/mcuboot/mcuboot/boot/bootutil/src/swap_misc.o
 .text.flash_sector_get_off
                0x00000000080040ec       0x18 /mnt/d/Marcelo/bitbucket/mcuboot/mcuboot/boot/bootutil/src/swap_misc.o
 .text.flash_sector_get_size
                0x0000000008004104       0x18 /mnt/d/Marcelo/bitbucket/mcuboot/mcuboot/boot/bootutil/src/swap_misc.o
 .text.boot_img_num_sectors
                0x000000000800411c       0x26 /mnt/d/Marcelo/bitbucket/mcuboot/mcuboot/boot/bootutil/src/swap_misc.o
 .text.boot_img_sector_size
                0x0000000008004142       0x32 /mnt/d/Marcelo/bitbucket/mcuboot/mcuboot/boot/bootutil/src/swap_misc.o
 .text.boot_img_sector_off
                0x0000000008004174       0x4c /mnt/d/Marcelo/bitbucket/mcuboot/mcuboot/boot/bootutil/src/swap_misc.o
 .text.swap_erase_trailer_sectors
                0x00000000080041c0       0xec /mnt/d/Marcelo/bitbucket/mcuboot/mcuboot/boot/bootutil/src/swap_misc.o
                0x00000000080041c0                swap_erase_trailer_sectors
 .text.swap_status_init
                0x00000000080042ac       0xcc /mnt/d/Marcelo/bitbucket/mcuboot/mcuboot/boot/bootutil/src/swap_misc.o
                0x00000000080042ac                swap_status_init
 .text.swap_read_status
                0x0000000008004378       0xe4 /mnt/d/Marcelo/bitbucket/mcuboot/mcuboot/boot/bootutil/src/swap_misc.o
                0x0000000008004378                swap_read_status
 .text.swap_set_copy_done
                0x000000000800445c       0x3e /mnt/d/Marcelo/bitbucket/mcuboot/mcuboot/boot/bootutil/src/swap_misc.o
                0x000000000800445c                swap_set_copy_done
 .text.swap_set_image_ok
                0x000000000800449a       0x64 /mnt/d/Marcelo/bitbucket/mcuboot/mcuboot/boot/bootutil/src/swap_misc.o
                0x000000000800449a                swap_set_image_ok
 .text.flash_area_get_size
                0x00000000080044fe       0x18 /mnt/d/Marcelo/bitbucket/mcuboot/mcuboot/boot/bootutil/src/swap_scratch.o
 .text.flash_sector_get_off
                0x0000000008004516       0x18 /mnt/d/Marcelo/bitbucket/mcuboot/mcuboot/boot/bootutil/src/swap_scratch.o
 .text.flash_sector_get_size
                0x000000000800452e       0x18 /mnt/d/Marcelo/bitbucket/mcuboot/mcuboot/boot/bootutil/src/swap_scratch.o
 .text.boot_img_num_sectors
                0x0000000008004546       0x26 /mnt/d/Marcelo/bitbucket/mcuboot/mcuboot/boot/bootutil/src/swap_scratch.o
 .text.boot_img_sector_size
                0x000000000800456c       0x32 /mnt/d/Marcelo/bitbucket/mcuboot/mcuboot/boot/bootutil/src/swap_scratch.o
 .text.boot_img_sector_off
                0x000000000800459e       0x4c /mnt/d/Marcelo/bitbucket/mcuboot/mcuboot/boot/bootutil/src/swap_scratch.o
 .text.boot_scratch_area_size
                0x00000000080045ea       0x1c /mnt/d/Marcelo/bitbucket/mcuboot/mcuboot/boot/bootutil/src/swap_scratch.o
 .text.boot_read_image_header
                0x0000000008004606       0x66 /mnt/d/Marcelo/bitbucket/mcuboot/mcuboot/boot/bootutil/src/swap_scratch.o
                0x0000000008004606                boot_read_image_header
 .text.swap_read_status_bytes
                0x000000000800466c      0x10c /mnt/d/Marcelo/bitbucket/mcuboot/mcuboot/boot/bootutil/src/swap_scratch.o
                0x000000000800466c                swap_read_status_bytes
 .text.boot_status_internal_off
                0x0000000008004778       0x3a /mnt/d/Marcelo/bitbucket/mcuboot/mcuboot/boot/bootutil/src/swap_scratch.o
                0x0000000008004778                boot_status_internal_off
 *fill*         0x00000000080047b2        0x2 
 .text.boot_slots_compatible
                0x00000000080047b4      0x184 /mnt/d/Marcelo/bitbucket/mcuboot/mcuboot/boot/bootutil/src/swap_scratch.o
                0x00000000080047b4                boot_slots_compatible
 .text.swap_status_source
                0x0000000008004938      0x184 /mnt/d/Marcelo/bitbucket/mcuboot/mcuboot/boot/bootutil/src/swap_scratch.o
                0x0000000008004938                swap_status_source
 .text.boot_copy_sz
                0x0000000008004abc       0x60 /mnt/d/Marcelo/bitbucket/mcuboot/mcuboot/boot/bootutil/src/swap_scratch.o
 .text.boot_swap_sectors
                0x0000000008004b1c      0x49c /mnt/d/Marcelo/bitbucket/mcuboot/mcuboot/boot/bootutil/src/swap_scratch.o
 .text.swap_run
                0x0000000008004fb8       0xd6 /mnt/d/Marcelo/bitbucket/mcuboot/mcuboot/boot/bootutil/src/swap_scratch.o
                0x0000000008004fb8                swap_run
 .text.bootutil_tlv_iter_begin
                0x000000000800508e       0xf6 /mnt/d/Marcelo/bitbucket/mcuboot/mcuboot/boot/bootutil/src/tlv.o
                0x000000000800508e                bootutil_tlv_iter_begin
 .text.bootutil_tlv_iter_next
                0x0000000008005184       0xea /mnt/d/Marcelo/bitbucket/mcuboot/mcuboot/boot/bootutil/src/tlv.o
                0x0000000008005184                bootutil_tlv_iter_next
 .text.stm32_do_boot
                0x000000000800526e       0x14 mcuboot_main.o
                0x000000000800526e                stm32_do_boot
 *fill*         0x0000000008005282        0x2 
 .text.mcuboot_main
                0x0000000008005284       0x28 mcuboot_main.o
                0x0000000008005284                mcuboot_main
 .text.main     0x00000000080052ac       0x1a hal/Core/Src/main.o
                0x00000000080052ac                main
 .text.SystemClock_Config
                0x00000000080052c6       0xc8 hal/Core/Src/main.o
                0x00000000080052c6                SystemClock_Config
 *fill*         0x000000000800538e        0x2 
 .text.MX_USART2_UART_Init
                0x0000000008005390       0x98 hal/Core/Src/main.o
 .text.MX_GPIO_Init
                0x0000000008005428       0x48 hal/Core/Src/main.o
 .text.Error_Handler
                0x0000000008005470        0xa hal/Core/Src/main.o
                0x0000000008005470                Error_Handler
 .text.NMI_Handler
                0x000000000800547a        0x6 hal/Core/Src/stm32g4xx_it.o
                0x000000000800547a                NMI_Handler
 .text.HardFault_Handler
                0x0000000008005480        0x6 hal/Core/Src/stm32g4xx_it.o
                0x0000000008005480                HardFault_Handler
 .text.MemManage_Handler
                0x0000000008005486        0x6 hal/Core/Src/stm32g4xx_it.o
                0x0000000008005486                MemManage_Handler
 .text.BusFault_Handler
                0x000000000800548c        0x6 hal/Core/Src/stm32g4xx_it.o
                0x000000000800548c                BusFault_Handler
 .text.UsageFault_Handler
                0x0000000008005492        0x6 hal/Core/Src/stm32g4xx_it.o
                0x0000000008005492                UsageFault_Handler
 .text.SVC_Handler
                0x0000000008005498        0xe hal/Core/Src/stm32g4xx_it.o
                0x0000000008005498                SVC_Handler
 .text.DebugMon_Handler
                0x00000000080054a6        0xe hal/Core/Src/stm32g4xx_it.o
                0x00000000080054a6                DebugMon_Handler
 .text.PendSV_Handler
                0x00000000080054b4        0xe hal/Core/Src/stm32g4xx_it.o
                0x00000000080054b4                PendSV_Handler
 .text.SysTick_Handler
                0x00000000080054c2        0xc hal/Core/Src/stm32g4xx_it.o
                0x00000000080054c2                SysTick_Handler
 *fill*         0x00000000080054ce        0x2 
 .text.HAL_MspInit
                0x00000000080054d0       0x48 hal/Core/Src/stm32g4xx_hal_msp.o
                0x00000000080054d0                HAL_MspInit
 .text.HAL_UART_MspInit
                0x0000000008005518       0x84 hal/Core/Src/stm32g4xx_hal_msp.o
                0x0000000008005518                HAL_UART_MspInit
 .text.SystemInit
                0x000000000800559c       0x24 hal/Core/Src/system_stm32g4xx.o
                0x000000000800559c                SystemInit
 .text.Reset_Handler
                0x00000000080055c0       0x50 hal/startup_stm32g431xx.o
                0x00000000080055c0                Reset_Handler
 .text.Default_Handler
                0x0000000008005610        0x2 hal/startup_stm32g431xx.o
                0x0000000008005610                RTC_Alarm_IRQHandler
                0x0000000008005610                EXTI2_IRQHandler
                0x0000000008005610                TIM8_TRG_COM_IRQHandler
                0x0000000008005610                TIM8_CC_IRQHandler
                0x0000000008005610                TIM1_CC_IRQHandler
                0x0000000008005610                USB_HP_IRQHandler
                0x0000000008005610                CORDIC_IRQHandler
                0x0000000008005610                EXTI3_IRQHandler
                0x0000000008005610                I2C3_ER_IRQHandler
                0x0000000008005610                EXTI0_IRQHandler
                0x0000000008005610                I2C2_EV_IRQHandler
                0x0000000008005610                FPU_IRQHandler
                0x0000000008005610                FDCAN1_IT1_IRQHandler
                0x0000000008005610                TIM1_UP_TIM16_IRQHandler
                0x0000000008005610                ADC1_2_IRQHandler
                0x0000000008005610                SPI1_IRQHandler
                0x0000000008005610                TIM6_DAC_IRQHandler
                0x0000000008005610                TIM8_UP_IRQHandler
                0x0000000008005610                DMA2_Channel2_IRQHandler
                0x0000000008005610                DMA1_Channel4_IRQHandler
                0x0000000008005610                USART3_IRQHandler
                0x0000000008005610                TIM4_IRQHandler
                0x0000000008005610                DMA2_Channel1_IRQHandler
                0x0000000008005610                I2C1_EV_IRQHandler
                0x0000000008005610                DMA1_Channel6_IRQHandler
                0x0000000008005610                UART4_IRQHandler
                0x0000000008005610                DMA2_Channel4_IRQHandler
                0x0000000008005610                TIM3_IRQHandler
                0x0000000008005610                RCC_IRQHandler
                0x0000000008005610                DMA1_Channel1_IRQHandler
                0x0000000008005610                Default_Handler
                0x0000000008005610                RTC_TAMP_LSECSS_IRQHandler
                0x0000000008005610                FMAC_IRQHandler
                0x0000000008005610                EXTI15_10_IRQHandler
                0x0000000008005610                TIM7_IRQHandler
                0x0000000008005610                UCPD1_IRQHandler
                0x0000000008005610                I2C3_EV_IRQHandler
                0x0000000008005610                EXTI9_5_IRQHandler
                0x0000000008005610                RTC_WKUP_IRQHandler
                0x0000000008005610                PVD_PVM_IRQHandler
                0x0000000008005610                SPI2_IRQHandler
                0x0000000008005610                DMA2_Channel5_IRQHandler
                0x0000000008005610                CRS_IRQHandler
                0x0000000008005610                DMA1_Channel5_IRQHandler
                0x0000000008005610                USB_LP_IRQHandler
                0x0000000008005610                EXTI4_IRQHandler
                0x0000000008005610                RNG_IRQHandler
                0x0000000008005610                TIM1_TRG_COM_TIM17_IRQHandler
                0x0000000008005610                DMA1_Channel3_IRQHandler
                0x0000000008005610                WWDG_IRQHandler
                0x0000000008005610                LPUART1_IRQHandler
                0x0000000008005610                DMA2_Channel6_IRQHandler
                0x0000000008005610                FDCAN1_IT0_IRQHandler
                0x0000000008005610                TIM2_IRQHandler
                0x0000000008005610                COMP1_2_3_IRQHandler
                0x0000000008005610                EXTI1_IRQHandler
                0x0000000008005610                USART2_IRQHandler
                0x0000000008005610                I2C2_ER_IRQHandler
                0x0000000008005610                DMA1_Channel2_IRQHandler
                0x0000000008005610                TIM8_BRK_IRQHandler
                0x0000000008005610                FLASH_IRQHandler
                0x0000000008005610                USART1_IRQHandler
                0x0000000008005610                SPI3_IRQHandler
                0x0000000008005610                I2C1_ER_IRQHandler
                0x0000000008005610                LPTIM1_IRQHandler
                0x0000000008005610                DMAMUX_OVR_IRQHandler
                0x0000000008005610                USBWakeUp_IRQHandler
                0x0000000008005610                SAI1_IRQHandler
                0x0000000008005610                DMA2_Channel3_IRQHandler
                0x0000000008005610                COMP4_IRQHandler
                0x0000000008005610                TIM1_BRK_TIM15_IRQHandler
 *fill*         0x0000000008005612        0x2 
 .text.HAL_PWREx_ControlVoltageScaling
                0x0000000008005614      0x148 hal/Drivers/STM32G4xx_HAL_Driver/Src/stm32g4xx_hal_pwr_ex.o
                0x0000000008005614                HAL_PWREx_ControlVoltageScaling
 .text.HAL_PWREx_DisableUCPDDeadBattery
                0x000000000800575c       0x20 hal/Drivers/STM32G4xx_HAL_Driver/Src/stm32g4xx_hal_pwr_ex.o
                0x000000000800575c                HAL_PWREx_DisableUCPDDeadBattery
 .text.HAL_UART_Init
                0x000000000800577c       0xa0 hal/Drivers/STM32G4xx_HAL_Driver/Src/stm32g4xx_hal_uart.o
                0x000000000800577c                HAL_UART_Init
 .text.UART_SetConfig
                0x000000000800581c      0x53c hal/Drivers/STM32G4xx_HAL_Driver/Src/stm32g4xx_hal_uart.o
                0x000000000800581c                UART_SetConfig
 .text.UART_AdvFeatureConfig
                0x0000000008005d58      0x144 hal/Drivers/STM32G4xx_HAL_Driver/Src/stm32g4xx_hal_uart.o
                0x0000000008005d58                UART_AdvFeatureConfig
 .text.UART_CheckIdleState
                0x0000000008005e9c       0x96 hal/Drivers/STM32G4xx_HAL_Driver/Src/stm32g4xx_hal_uart.o
                0x0000000008005e9c                UART_CheckIdleState
 .text.UART_WaitOnFlagUntilTimeout
                0x0000000008005f32      0x100 hal/Drivers/STM32G4xx_HAL_Driver/Src/stm32g4xx_hal_uart.o
                0x0000000008005f32                UART_WaitOnFlagUntilTimeout
 .text.HAL_UARTEx_DisableFifoMode
                0x0000000008006032       0x72 hal/Drivers/STM32G4xx_HAL_Driver/Src/stm32g4xx_hal_uart_ex.o
                0x0000000008006032                HAL_UARTEx_DisableFifoMode
 .text.HAL_UARTEx_SetTxFifoThreshold
                0x00000000080060a4       0x7c hal/Drivers/STM32G4xx_HAL_Driver/Src/stm32g4xx_hal_uart_ex.o
                0x00000000080060a4                HAL_UARTEx_SetTxFifoThreshold
 .text.HAL_UARTEx_SetRxFifoThreshold
                0x0000000008006120       0x7c hal/Drivers/STM32G4xx_HAL_Driver/Src/stm32g4xx_hal_uart_ex.o
                0x0000000008006120                HAL_UARTEx_SetRxFifoThreshold
 .text.UARTEx_SetNbDataToProcess
                0x000000000800619c       0x9c hal/Drivers/STM32G4xx_HAL_Driver/Src/stm32g4xx_hal_uart_ex.o
 .text.HAL_Init
                0x0000000008006238       0x30 hal/Drivers/STM32G4xx_HAL_Driver/Src/stm32g4xx_hal.o
                0x0000000008006238                HAL_Init
 .text.HAL_InitTick
                0x0000000008006268       0x74 hal/Drivers/STM32G4xx_HAL_Driver/Src/stm32g4xx_hal.o
                0x0000000008006268                HAL_InitTick
 .text.HAL_IncTick
                0x00000000080062dc       0x24 hal/Drivers/STM32G4xx_HAL_Driver/Src/stm32g4xx_hal.o
                0x00000000080062dc                HAL_IncTick
 .text.HAL_GetTick
                0x0000000008006300       0x18 hal/Drivers/STM32G4xx_HAL_Driver/Src/stm32g4xx_hal.o
                0x0000000008006300                HAL_GetTick
 .text.HAL_RCC_OscConfig
                0x0000000008006318      0x630 hal/Drivers/STM32G4xx_HAL_Driver/Src/stm32g4xx_hal_rcc.o
                0x0000000008006318                HAL_RCC_OscConfig
 .text.HAL_RCC_ClockConfig
                0x0000000008006948      0x278 hal/Drivers/STM32G4xx_HAL_Driver/Src/stm32g4xx_hal_rcc.o
                0x0000000008006948                HAL_RCC_ClockConfig
 .text.HAL_RCC_GetSysClockFreq
                0x0000000008006bc0       0xc4 hal/Drivers/STM32G4xx_HAL_Driver/Src/stm32g4xx_hal_rcc.o
                0x0000000008006bc0                HAL_RCC_GetSysClockFreq
 .text.HAL_RCC_GetHCLKFreq
                0x0000000008006c84       0x18 hal/Drivers/STM32G4xx_HAL_Driver/Src/stm32g4xx_hal_rcc.o
                0x0000000008006c84                HAL_RCC_GetHCLKFreq
 .text.HAL_RCC_GetPCLK1Freq
                0x0000000008006c9c       0x2c hal/Drivers/STM32G4xx_HAL_Driver/Src/stm32g4xx_hal_rcc.o
                0x0000000008006c9c                HAL_RCC_GetPCLK1Freq
 .text.HAL_RCC_GetPCLK2Freq
                0x0000000008006cc8       0x2c hal/Drivers/STM32G4xx_HAL_Driver/Src/stm32g4xx_hal_rcc.o
                0x0000000008006cc8                HAL_RCC_GetPCLK2Freq
 .text.RCC_GetSysClockFreqFromPLLSource
                0x0000000008006cf4       0x8c hal/Drivers/STM32G4xx_HAL_Driver/Src/stm32g4xx_hal_rcc.o
 .text.HAL_RCCEx_PeriphCLKConfig
                0x0000000008006d80      0x3e0 hal/Drivers/STM32G4xx_HAL_Driver/Src/stm32g4xx_hal_rcc_ex.o
                0x0000000008006d80                HAL_RCCEx_PeriphCLKConfig
 .text.HAL_GPIO_Init
                0x0000000008007160      0x304 hal/Drivers/STM32G4xx_HAL_Driver/Src/stm32g4xx_hal_gpio.o
                0x0000000008007160                HAL_GPIO_Init
 .text.__NVIC_SetPriorityGrouping
                0x0000000008007464       0x48 hal/Drivers/STM32G4xx_HAL_Driver/Src/stm32g4xx_hal_cortex.o
 .text.__NVIC_GetPriorityGrouping
                0x00000000080074ac       0x1c hal/Drivers/STM32G4xx_HAL_Driver/Src/stm32g4xx_hal_cortex.o
 .text.__NVIC_SetPriority
                0x00000000080074c8       0x54 hal/Drivers/STM32G4xx_HAL_Driver/Src/stm32g4xx_hal_cortex.o
 .text.NVIC_EncodePriority
                0x000000000800751c       0x66 hal/Drivers/STM32G4xx_HAL_Driver/Src/stm32g4xx_hal_cortex.o
 *fill*         0x0000000008007582        0x2 
 .text.SysTick_Config
                0x0000000008007584       0x44 hal/Drivers/STM32G4xx_HAL_Driver/Src/stm32g4xx_hal_cortex.o
 .text.HAL_NVIC_SetPriorityGrouping
                0x00000000080075c8       0x16 hal/Drivers/STM32G4xx_HAL_Driver/Src/stm32g4xx_hal_cortex.o
                0x00000000080075c8                HAL_NVIC_SetPriorityGrouping
 .text.HAL_NVIC_SetPriority
                0x00000000080075de       0x34 hal/Drivers/STM32G4xx_HAL_Driver/Src/stm32g4xx_hal_cortex.o
                0x00000000080075de                HAL_NVIC_SetPriority
 .text.HAL_SYSTICK_Config
                0x0000000008007612       0x18 hal/Drivers/STM32G4xx_HAL_Driver/Src/stm32g4xx_hal_cortex.o
                0x0000000008007612                HAL_SYSTICK_Config
 *(.glue_7)
 .glue_7        0x000000000800762a        0x0 linker stubs
 *(.glue_7t)
 .glue_7t       0x000000000800762a        0x0 linker stubs
 *(.eh_frame)
 *fill*         0x000000000800762a        0x2 
 .eh_frame      0x000000000800762c        0x0 /usr/lib/gcc/arm-none-eabi/9.2.1/thumb/v7e-m+fp/hard/crtbegin.o
 *(.init)
 .init          0x000000000800762c        0x4 /usr/lib/gcc/arm-none-eabi/9.2.1/thumb/v7e-m+fp/hard/crti.o
                0x000000000800762c                _init
 .init          0x0000000008007630        0x8 /usr/lib/gcc/arm-none-eabi/9.2.1/thumb/v7e-m+fp/hard/crtn.o
 *(.fini)
 .fini          0x0000000008007638        0x4 /usr/lib/gcc/arm-none-eabi/9.2.1/thumb/v7e-m+fp/hard/crti.o
                0x0000000008007638                _fini
 .fini          0x000000000800763c        0x8 /usr/lib/gcc/arm-none-eabi/9.2.1/thumb/v7e-m+fp/hard/crtn.o
                0x0000000008007644                . = ALIGN (0x4)
                0x0000000008007644                _etext = .

.vfp11_veneer   0x0000000008007644        0x0
 .vfp11_veneer  0x0000000008007644        0x0 linker stubs

.v4_bx          0x0000000008007644        0x0
 .v4_bx         0x0000000008007644        0x0 linker stubs

.iplt           0x0000000008007644        0x0
 .iplt          0x0000000008007644        0x0 /usr/lib/gcc/arm-none-eabi/9.2.1/thumb/v7e-m+fp/hard/crtbegin.o

.rodata         0x0000000008007644      0x81c
                0x0000000008007644                . = ALIGN (0x4)
 *(.rodata)
 .rodata        0x0000000008007644        0x4 /usr/lib/gcc/arm-none-eabi/9.2.1/../../../arm-none-eabi/lib/thumb/v7e-m+fp/hard/libc_nano.a(lib_a-impure.o)
                0x0000000008007644                _global_impure_ptr
 .rodata        0x0000000008007648       0x77 /mnt/d/Marcelo/bitbucket/mcuboot/mcuboot/boot/bootutil/src/bootutil_misc.o
 *fill*         0x00000000080076bf        0x1 
 .rodata        0x00000000080076c0      0x12a /mnt/d/Marcelo/bitbucket/mcuboot/mcuboot/boot/bootutil/src/bootutil_public.o
 *fill*         0x00000000080077ea        0x2 
 .rodata        0x00000000080077ec      0x17a /mnt/d/Marcelo/bitbucket/mcuboot/mcuboot/boot/bootutil/src/loader.o
 *fill*         0x0000000008007966        0x2 
 .rodata        0x0000000008007968       0x52 /mnt/d/Marcelo/bitbucket/mcuboot/mcuboot/boot/bootutil/src/swap_misc.o
 *fill*         0x00000000080079ba        0x2 
 .rodata        0x00000000080079bc      0x23b /mnt/d/Marcelo/bitbucket/mcuboot/mcuboot/boot/bootutil/src/swap_scratch.o
 *fill*         0x0000000008007bf7        0x1 
 .rodata        0x0000000008007bf8       0x60 /usr/lib/gcc/arm-none-eabi/9.2.1/../../../arm-none-eabi/lib/thumb/v7e-m+fp/hard/libc_nano.a(lib_a-findfp.o)
                0x0000000008007bf8                __sf_fake_stderr
                0x0000000008007c18                __sf_fake_stdout
                0x0000000008007c38                __sf_fake_stdin
 *(.rodata*)
 .rodata.__func__.6665
                0x0000000008007c58       0x10 /mnt/d/Marcelo/bitbucket/mcuboot/mcuboot/boot/bootutil/src/bootutil_misc.o
 .rodata.boot_img_magic
                0x0000000008007c68       0x10 /mnt/d/Marcelo/bitbucket/mcuboot/mcuboot/boot/bootutil/src/bootutil_public.o
                0x0000000008007c68                boot_img_magic
 .rodata.boot_swap_tables
                0x0000000008007c78       0x12 /mnt/d/Marcelo/bitbucket/mcuboot/mcuboot/boot/bootutil/src/bootutil_public.o
 *fill*         0x0000000008007c8a        0x2 
 .rodata.__func__.6612
                0x0000000008007c8c       0x15 /mnt/d/Marcelo/bitbucket/mcuboot/mcuboot/boot/bootutil/src/bootutil_public.o
 *fill*         0x0000000008007ca1        0x3 
 .rodata.ec_pubkey_oid
                0x0000000008007ca4        0x8 /mnt/d/Marcelo/bitbucket/mcuboot/mcuboot/boot/bootutil/src/image_ec256.o
 .rodata.ec_secp256r1_oid
                0x0000000008007cac        0x9 /mnt/d/Marcelo/bitbucket/mcuboot/mcuboot/boot/bootutil/src/image_ec256.o
 *fill*         0x0000000008007cb5        0x3 
 .rodata.__func__.7163
                0x0000000008007cb8       0x10 /mnt/d/Marcelo/bitbucket/mcuboot/mcuboot/boot/bootutil/src/loader.o
 .rodata.__func__.7172
                0x0000000008007cc8       0x14 /mnt/d/Marcelo/bitbucket/mcuboot/mcuboot/boot/bootutil/src/loader.o
 .rodata.__func__.7178
                0x0000000008007cdc       0x1b /mnt/d/Marcelo/bitbucket/mcuboot/mcuboot/boot/bootutil/src/loader.o
 *fill*         0x0000000008007cf7        0x1 
 .rodata.__func__.7186
                0x0000000008007cf8       0x1e /mnt/d/Marcelo/bitbucket/mcuboot/mcuboot/boot/bootutil/src/loader.o
 *fill*         0x0000000008007d16        0x2 
 .rodata.__func__.7204
                0x0000000008007d18       0x10 /mnt/d/Marcelo/bitbucket/mcuboot/mcuboot/boot/bootutil/src/loader.o
 .rodata.__func__.6966
                0x0000000008007d28       0x1b /mnt/d/Marcelo/bitbucket/mcuboot/mcuboot/boot/bootutil/src/swap_misc.o
 *fill*         0x0000000008007d43        0x1 
 .rodata.__func__.6977
                0x0000000008007d44       0x11 /mnt/d/Marcelo/bitbucket/mcuboot/mcuboot/boot/bootutil/src/swap_misc.o
 *fill*         0x0000000008007d55        0x3 
 .rodata.__func__.6992
                0x0000000008007d58       0x11 /mnt/d/Marcelo/bitbucket/mcuboot/mcuboot/boot/bootutil/src/swap_misc.o
 *fill*         0x0000000008007d69        0x3 
 .rodata.boot_status_tables
                0x0000000008007d6c       0x10 /mnt/d/Marcelo/bitbucket/mcuboot/mcuboot/boot/bootutil/src/swap_scratch.o
 .rodata.__func__.7016
                0x0000000008007d7c       0x13 /mnt/d/Marcelo/bitbucket/mcuboot/mcuboot/boot/bootutil/src/swap_scratch.o
 *fill*         0x0000000008007d8f        0x1 
 .rodata.__func__.7050
                0x0000000008007d90       0x12 /mnt/d/Marcelo/bitbucket/mcuboot/mcuboot/boot/bootutil/src/swap_scratch.o
 *fill*         0x0000000008007da2        0x2 
 .rodata.AHBPrescTable
                0x0000000008007da4       0x10 hal/Core/Src/system_stm32g4xx.o
                0x0000000008007da4                AHBPrescTable
 .rodata.APBPrescTable
                0x0000000008007db4        0x8 hal/Core/Src/system_stm32g4xx.o
                0x0000000008007db4                APBPrescTable
 .rodata.UARTPrescTable
                0x0000000008007dbc       0x18 hal/Drivers/STM32G4xx_HAL_Driver/Src/stm32g4xx_hal_uart.o
                0x0000000008007dbc                UARTPrescTable
 .rodata.numerator.7855
                0x0000000008007dd4        0x8 hal/Drivers/STM32G4xx_HAL_Driver/Src/stm32g4xx_hal_uart_ex.o
 .rodata.denominator.7856
                0x0000000008007ddc        0x8 hal/Drivers/STM32G4xx_HAL_Driver/Src/stm32g4xx_hal_uart_ex.o
 .rodata.str1.4
                0x0000000008007de4       0x3f /usr/lib/gcc/arm-none-eabi/9.2.1/../../../arm-none-eabi/lib/thumb/v7e-m+fp/hard/libc_nano.a(lib_a-assert.o)
                                         0x43 (size before relaxing)
 *fill*         0x0000000008007e23        0x1 
 .rodata.str1.4
                0x0000000008007e24       0x13 /usr/lib/gcc/arm-none-eabi/9.2.1/../../../arm-none-eabi/lib/thumb/v7e-m+fp/hard/libc_nano.a(lib_a-nano-vfprintf.o)
 *fill*         0x0000000008007e37        0x1 
 .rodata.str1.4
                0x0000000008007e38       0x25 /usr/lib/gcc/arm-none-eabi/9.2.1/../../../arm-none-eabi/lib/thumb/v7e-m+fp/hard/libc_nano.a(lib_a-nano-vfprintf_i.o)
                0x0000000008007e60                . = ALIGN (0x4)
 *fill*         0x0000000008007e5d        0x3 

.ARM.extab
 *(.ARM.extab* .gnu.linkonce.armextab.*)

.ARM            0x0000000008007e60        0x8
                0x0000000008007e60                __exidx_start = .
 *(.ARM.exidx*)
 .ARM.exidx     0x0000000008007e60        0x8 /usr/lib/gcc/arm-none-eabi/9.2.1/thumb/v7e-m+fp/hard/libgcc.a(_udivmoddi4.o)
                0x0000000008007e68                __exidx_end = .

.rel.dyn        0x0000000008007e68        0x0
 .rel.iplt      0x0000000008007e68        0x0 /usr/lib/gcc/arm-none-eabi/9.2.1/thumb/v7e-m+fp/hard/crtbegin.o

.preinit_array  0x0000000008007e68        0x0
                0x0000000008007e68                PROVIDE (__preinit_array_start = .)
 *(.preinit_array*)
                0x0000000008007e68                PROVIDE (__preinit_array_end = .)

.init_array     0x0000000008007e68        0x4
                0x0000000008007e68                PROVIDE (__init_array_start = .)
 *(SORT_BY_NAME(.init_array.*))
 *(.init_array*)
 .init_array    0x0000000008007e68        0x4 /usr/lib/gcc/arm-none-eabi/9.2.1/thumb/v7e-m+fp/hard/crtbegin.o
                0x0000000008007e6c                PROVIDE (__init_array_end = .)

.fini_array     0x0000000008007e6c        0x4
                0x0000000008007e6c                PROVIDE (__fini_array_start = .)
 *(SORT_BY_NAME(.fini_array.*))
 *(.fini_array*)
 .fini_array    0x0000000008007e6c        0x4 /usr/lib/gcc/arm-none-eabi/9.2.1/thumb/v7e-m+fp/hard/crtbegin.o
                0x0000000008007e70                PROVIDE (__fini_array_end = .)
                0x0000000008007e70                _sidata = LOADADDR (.data)

.data           0x0000000020000000       0x74 load address 0x0000000008007e70
                0x0000000020000000                . = ALIGN (0x4)
                0x0000000020000000                _sdata = .
 *(.data)
 .data          0x0000000020000000       0x64 /usr/lib/gcc/arm-none-eabi/9.2.1/../../../arm-none-eabi/lib/thumb/v7e-m+fp/hard/libc_nano.a(lib_a-impure.o)
                0x0000000020000000                _impure_ptr
 *(.data*)
 .data.FIH_FAILURE
                0x0000000020000064        0x4 /mnt/d/Marcelo/bitbucket/mcuboot/mcuboot/boot/bootutil/src/fault_injection_hardening.o
                0x0000000020000064                FIH_FAILURE
 .data.SystemCoreClock
                0x0000000020000068        0x4 hal/Core/Src/system_stm32g4xx.o
                0x0000000020000068                SystemCoreClock
 .data.uwTickPrio
                0x000000002000006c        0x4 hal/Drivers/STM32G4xx_HAL_Driver/Src/stm32g4xx_hal.o
                0x000000002000006c                uwTickPrio
 .data.uwTickFreq
                0x0000000020000070        0x4 hal/Drivers/STM32G4xx_HAL_Driver/Src/stm32g4xx_hal.o
                0x0000000020000070                uwTickFreq
                0x0000000020000074                . = ALIGN (0x4)
                0x0000000020000074                _edata = .

.tm_clone_table
                0x0000000020000074        0x0 load address 0x0000000008007ee4
 .tm_clone_table
                0x0000000020000074        0x0 /usr/lib/gcc/arm-none-eabi/9.2.1/thumb/v7e-m+fp/hard/crtbegin.o
 .tm_clone_table
                0x0000000020000074        0x0 /usr/lib/gcc/arm-none-eabi/9.2.1/thumb/v7e-m+fp/hard/crtend.o

.igot.plt       0x0000000020000074        0x0 load address 0x0000000008007ee4
 .igot.plt      0x0000000020000074        0x0 /usr/lib/gcc/arm-none-eabi/9.2.1/thumb/v7e-m+fp/hard/crtbegin.o
                0x0000000020000074                . = ALIGN (0x4)

.bss            0x0000000020000074      0x87c load address 0x0000000008007ee4
                0x0000000020000074                _sbss = .
                0x0000000020000074                __bss_start__ = _sbss
 *(.bss)
 .bss           0x0000000020000074       0x1c /usr/lib/gcc/arm-none-eabi/9.2.1/thumb/v7e-m+fp/hard/crtbegin.o
 .bss           0x0000000020000090        0x8 /usr/lib/gcc/arm-none-eabi/9.2.1/../../../arm-none-eabi/lib/thumb/v7e-m+fp/hard/libc_nano.a(lib_a-nano-mallocr.o)
                0x0000000020000090                __malloc_free_list
                0x0000000020000094                __malloc_sbrk_start
 *(.bss*)
 .bss.FIH_SUCCESS
                0x0000000020000098        0x4 /mnt/d/Marcelo/bitbucket/mcuboot/mcuboot/boot/bootutil/src/fault_injection_hardening.o
                0x0000000020000098                FIH_SUCCESS
 .bss.boot_data
                0x000000002000009c       0x6c /mnt/d/Marcelo/bitbucket/mcuboot/mcuboot/boot/bootutil/src/loader.o
 .bss.tmpbuf.7077
                0x0000000020000108      0x100 /mnt/d/Marcelo/bitbucket/mcuboot/mcuboot/boot/bootutil/src/loader.o
 .bss.buf.7148  0x0000000020000208      0x400 /mnt/d/Marcelo/bitbucket/mcuboot/mcuboot/boot/bootutil/src/loader.o
 .bss.primary_slot_sectors.7201
                0x0000000020000608       0xc0 /mnt/d/Marcelo/bitbucket/mcuboot/mcuboot/boot/bootutil/src/loader.o
 .bss.secondary_slot_sectors.7202
                0x00000000200006c8       0xc0 /mnt/d/Marcelo/bitbucket/mcuboot/mcuboot/boot/bootutil/src/loader.o
 .bss.scratch_sectors.7203
                0x0000000020000788       0xc0 /mnt/d/Marcelo/bitbucket/mcuboot/mcuboot/boot/bootutil/src/loader.o
 .bss.boot_status_fails
                0x0000000020000848        0x4 /mnt/d/Marcelo/bitbucket/mcuboot/mcuboot/boot/bootutil/src/swap_scratch.o
                0x0000000020000848                boot_status_fails
 .bss.rsp.6506  0x000000002000084c        0xc mcuboot_main.o
 *(COMMON)
 COMMON         0x0000000020000858       0x90 hal/Core/Src/main.o
                0x0000000020000858                huart2
 COMMON         0x00000000200008e8        0x4 hal/Drivers/STM32G4xx_HAL_Driver/Src/stm32g4xx_hal.o
                0x00000000200008e8                uwTick
 COMMON         0x00000000200008ec        0x4 /usr/lib/gcc/arm-none-eabi/9.2.1/../../../arm-none-eabi/lib/thumb/v7e-m+fp/hard/libc_nano.a(lib_a-reent.o)
                0x00000000200008ec                errno
                0x00000000200008f0                . = ALIGN (0x4)
                0x00000000200008f0                _ebss = .
                0x00000000200008f0                __bss_end__ = _ebss

._user_heap_stack
                0x00000000200008f0      0x600 load address 0x0000000008007ee4
                0x00000000200008f0                . = ALIGN (0x8)
                [!provide]                        PROVIDE (end = .)
                [!provide]                        PROVIDE (_end = .)
                0x0000000020000af0                . = (. + _Min_Heap_Size)
 *fill*         0x00000000200008f0      0x200 
                0x0000000020000ef0                . = (. + _Min_Stack_Size)
 *fill*         0x0000000020000af0      0x400 
                0x0000000020000ef0                . = ALIGN (0x8)

/DISCARD/
 libc.a(*)
 libm.a(*)
 libgcc.a(*)

.ARM.attributes
                0x0000000000000000       0x30
 *(.ARM.attributes)
 .ARM.attributes
                0x0000000000000000       0x1e /usr/lib/gcc/arm-none-eabi/9.2.1/thumb/v7e-m+fp/hard/crti.o
 .ARM.attributes
                0x000000000000001e       0x34 /usr/lib/gcc/arm-none-eabi/9.2.1/thumb/v7e-m+fp/hard/crtbegin.o
 .ARM.attributes
                0x0000000000000052       0x32 /usr/lib/gcc/arm-none-eabi/9.2.1/../../../arm-none-eabi/lib/thumb/v7e-m+fp/hard/libc_nano.a(lib_a-impure.o)
 .ARM.attributes
                0x0000000000000084       0x34 /usr/lib/gcc/arm-none-eabi/9.2.1/../../../arm-none-eabi/lib/thumb/v7e-m+fp/hard/libc_nano.a(lib_a-init.o)
 .ARM.attributes
                0x00000000000000b8       0x34 /usr/lib/gcc/arm-none-eabi/9.2.1/../../../arm-none-eabi/lib/thumb/v7e-m+fp/hard/libc_nano.a(lib_a-memset.o)
 .ARM.attributes
                0x00000000000000ec       0x34 /usr/lib/gcc/arm-none-eabi/9.2.1/../../../arm-none-eabi/lib/thumb/v7e-m+fp/hard/libnosys.a(_exit.o)
 .ARM.attributes
                0x0000000000000120       0x34 /mnt/d/Marcelo/bitbucket/mcuboot/mcuboot/boot/bootutil/src/bootutil_misc.o
 .ARM.attributes
                0x0000000000000154       0x34 /mnt/d/Marcelo/bitbucket/mcuboot/mcuboot/boot/bootutil/src/bootutil_public.o
 .ARM.attributes
                0x0000000000000188       0x39 /mnt/d/Marcelo/bitbucket/mcuboot/mcuboot/boot/bootutil/src/fault_injection_hardening.o
 .ARM.attributes
                0x00000000000001c1       0x34 /mnt/d/Marcelo/bitbucket/mcuboot/mcuboot/boot/bootutil/src/image_ec256.o
 .ARM.attributes
                0x00000000000001f5       0x34 /mnt/d/Marcelo/bitbucket/mcuboot/mcuboot/boot/bootutil/src/image_validate.o
 .ARM.attributes
                0x0000000000000229       0x34 /mnt/d/Marcelo/bitbucket/mcuboot/mcuboot/boot/bootutil/src/loader.o
 .ARM.attributes
                0x000000000000025d       0x34 /mnt/d/Marcelo/bitbucket/mcuboot/mcuboot/boot/bootutil/src/swap_misc.o
 .ARM.attributes
                0x0000000000000291       0x34 /mnt/d/Marcelo/bitbucket/mcuboot/mcuboot/boot/bootutil/src/swap_scratch.o
 .ARM.attributes
                0x00000000000002c5       0x34 /mnt/d/Marcelo/bitbucket/mcuboot/mcuboot/boot/bootutil/src/tlv.o
 .ARM.attributes
                0x00000000000002f9       0x34 mcuboot_main.o
 .ARM.attributes
                0x000000000000032d       0x34 hal/Core/Src/main.o
 .ARM.attributes
                0x0000000000000361       0x34 hal/Core/Src/stm32g4xx_it.o
 .ARM.attributes
                0x0000000000000395       0x34 hal/Core/Src/stm32g4xx_hal_msp.o
 .ARM.attributes
                0x00000000000003c9       0x34 hal/Core/Src/system_stm32g4xx.o
 .ARM.attributes
                0x00000000000003fd       0x21 hal/startup_stm32g431xx.o
 .ARM.attributes
                0x000000000000041e       0x34 hal/Drivers/STM32G4xx_HAL_Driver/Src/stm32g4xx_hal_pwr_ex.o
 .ARM.attributes
                0x0000000000000452       0x34 hal/Drivers/STM32G4xx_HAL_Driver/Src/stm32g4xx_hal_uart.o
 .ARM.attributes
                0x0000000000000486       0x34 hal/Drivers/STM32G4xx_HAL_Driver/Src/stm32g4xx_hal_uart_ex.o
 .ARM.attributes
                0x00000000000004ba       0x34 hal/Drivers/STM32G4xx_HAL_Driver/Src/stm32g4xx_hal.o
 .ARM.attributes
                0x00000000000004ee       0x34 hal/Drivers/STM32G4xx_HAL_Driver/Src/stm32g4xx_hal_rcc.o
 .ARM.attributes
                0x0000000000000522       0x34 hal/Drivers/STM32G4xx_HAL_Driver/Src/stm32g4xx_hal_rcc_ex.o
 .ARM.attributes
                0x0000000000000556       0x34 hal/Drivers/STM32G4xx_HAL_Driver/Src/stm32g4xx_hal_gpio.o
 .ARM.attributes
                0x000000000000058a       0x34 hal/Drivers/STM32G4xx_HAL_Driver/Src/stm32g4xx_hal_cortex.o
 .ARM.attributes
                0x00000000000005be       0x1e /usr/lib/gcc/arm-none-eabi/9.2.1/thumb/v7e-m+fp/hard/libgcc.a(_aeabi_uldivmod.o)
 .ARM.attributes
                0x00000000000005dc       0x34 /usr/lib/gcc/arm-none-eabi/9.2.1/thumb/v7e-m+fp/hard/libgcc.a(_udivmoddi4.o)
 .ARM.attributes
                0x0000000000000610       0x1e /usr/lib/gcc/arm-none-eabi/9.2.1/thumb/v7e-m+fp/hard/libgcc.a(_dvmd_tls.o)
 .ARM.attributes
                0x000000000000062e       0x34 /usr/lib/gcc/arm-none-eabi/9.2.1/../../../arm-none-eabi/lib/thumb/v7e-m+fp/hard/libc_nano.a(lib_a-assert.o)
 .ARM.attributes
                0x0000000000000662       0x34 /usr/lib/gcc/arm-none-eabi/9.2.1/../../../arm-none-eabi/lib/thumb/v7e-m+fp/hard/libc_nano.a(lib_a-fprintf.o)
 .ARM.attributes
                0x0000000000000696       0x34 /usr/lib/gcc/arm-none-eabi/9.2.1/../../../arm-none-eabi/lib/thumb/v7e-m+fp/hard/libc_nano.a(lib_a-memcmp.o)
 .ARM.attributes
                0x00000000000006ca       0x1c /usr/lib/gcc/arm-none-eabi/9.2.1/../../../arm-none-eabi/lib/thumb/v7e-m+fp/hard/libc_nano.a(lib_a-memcpy.o)
 .ARM.attributes
                0x00000000000006e6       0x34 /usr/lib/gcc/arm-none-eabi/9.2.1/../../../arm-none-eabi/lib/thumb/v7e-m+fp/hard/libc_nano.a(lib_a-nano-freer.o)
 .ARM.attributes
                0x000000000000071a       0x34 /usr/lib/gcc/arm-none-eabi/9.2.1/../../../arm-none-eabi/lib/thumb/v7e-m+fp/hard/libc_nano.a(lib_a-nano-mallocr.o)
 .ARM.attributes
                0x000000000000074e       0x34 /usr/lib/gcc/arm-none-eabi/9.2.1/../../../arm-none-eabi/lib/thumb/v7e-m+fp/hard/libc_nano.a(lib_a-nano-vfprintf.o)
 .ARM.attributes
                0x0000000000000782       0x34 /usr/lib/gcc/arm-none-eabi/9.2.1/../../../arm-none-eabi/lib/thumb/v7e-m+fp/hard/libc_nano.a(lib_a-nano-vfprintf_i.o)
 .ARM.attributes
                0x00000000000007b6       0x34 /usr/lib/gcc/arm-none-eabi/9.2.1/../../../arm-none-eabi/lib/thumb/v7e-m+fp/hard/libc_nano.a(lib_a-printf.o)
 .ARM.attributes
                0x00000000000007ea       0x34 /usr/lib/gcc/arm-none-eabi/9.2.1/../../../arm-none-eabi/lib/thumb/v7e-m+fp/hard/libc_nano.a(lib_a-sbrkr.o)
 .ARM.attributes
                0x000000000000081e       0x34 /usr/lib/gcc/arm-none-eabi/9.2.1/../../../arm-none-eabi/lib/thumb/v7e-m+fp/hard/libc_nano.a(lib_a-wbuf.o)
 .ARM.attributes
                0x0000000000000852       0x34 /usr/lib/gcc/arm-none-eabi/9.2.1/../../../arm-none-eabi/lib/thumb/v7e-m+fp/hard/libc_nano.a(lib_a-wsetup.o)
 .ARM.attributes
                0x0000000000000886       0x34 /usr/lib/gcc/arm-none-eabi/9.2.1/../../../arm-none-eabi/lib/thumb/v7e-m+fp/hard/libc_nano.a(lib_a-abort.o)
 .ARM.attributes
                0x00000000000008ba       0x34 /usr/lib/gcc/arm-none-eabi/9.2.1/../../../arm-none-eabi/lib/thumb/v7e-m+fp/hard/libc_nano.a(lib_a-fflush.o)
 .ARM.attributes
                0x00000000000008ee       0x34 /usr/lib/gcc/arm-none-eabi/9.2.1/../../../arm-none-eabi/lib/thumb/v7e-m+fp/hard/libc_nano.a(lib_a-findfp.o)
 .ARM.attributes
                0x0000000000000922       0x34 /usr/lib/gcc/arm-none-eabi/9.2.1/../../../arm-none-eabi/lib/thumb/v7e-m+fp/hard/libc_nano.a(lib_a-fvwrite.o)
 .ARM.attributes
                0x0000000000000956       0x34 /usr/lib/gcc/arm-none-eabi/9.2.1/../../../arm-none-eabi/lib/thumb/v7e-m+fp/hard/libc_nano.a(lib_a-fwalk.o)
 .ARM.attributes
                0x000000000000098a       0x34 /usr/lib/gcc/arm-none-eabi/9.2.1/../../../arm-none-eabi/lib/thumb/v7e-m+fp/hard/libc_nano.a(lib_a-makebuf.o)
 .ARM.attributes
                0x00000000000009be       0x1c /usr/lib/gcc/arm-none-eabi/9.2.1/../../../arm-none-eabi/lib/thumb/v7e-m+fp/hard/libc_nano.a(lib_a-memchr.o)
 .ARM.attributes
                0x00000000000009da       0x34 /usr/lib/gcc/arm-none-eabi/9.2.1/../../../arm-none-eabi/lib/thumb/v7e-m+fp/hard/libc_nano.a(lib_a-memmove.o)
 .ARM.attributes
                0x0000000000000a0e       0x34 /usr/lib/gcc/arm-none-eabi/9.2.1/../../../arm-none-eabi/lib/thumb/v7e-m+fp/hard/libc_nano.a(lib_a-mlock.o)
 .ARM.attributes
                0x0000000000000a42       0x34 /usr/lib/gcc/arm-none-eabi/9.2.1/../../../arm-none-eabi/lib/thumb/v7e-m+fp/hard/libc_nano.a(lib_a-nano-reallocr.o)
 .ARM.attributes
                0x0000000000000a76       0x34 /usr/lib/gcc/arm-none-eabi/9.2.1/../../../arm-none-eabi/lib/thumb/v7e-m+fp/hard/libc_nano.a(lib_a-reent.o)
 .ARM.attributes
                0x0000000000000aaa       0x34 /usr/lib/gcc/arm-none-eabi/9.2.1/../../../arm-none-eabi/lib/thumb/v7e-m+fp/hard/libc_nano.a(lib_a-signal.o)
 .ARM.attributes
                0x0000000000000ade       0x34 /usr/lib/gcc/arm-none-eabi/9.2.1/../../../arm-none-eabi/lib/thumb/v7e-m+fp/hard/libc_nano.a(lib_a-signalr.o)
 .ARM.attributes
                0x0000000000000b12       0x34 /usr/lib/gcc/arm-none-eabi/9.2.1/../../../arm-none-eabi/lib/thumb/v7e-m+fp/hard/libc_nano.a(lib_a-stdio.o)
 .ARM.attributes
                0x0000000000000b46       0x34 /usr/lib/gcc/arm-none-eabi/9.2.1/../../../arm-none-eabi/lib/thumb/v7e-m+fp/hard/libc_nano.a(lib_a-writer.o)
 .ARM.attributes
                0x0000000000000b7a       0x34 /usr/lib/gcc/arm-none-eabi/9.2.1/../../../arm-none-eabi/lib/thumb/v7e-m+fp/hard/libc_nano.a(lib_a-closer.o)
 .ARM.attributes
                0x0000000000000bae       0x34 /usr/lib/gcc/arm-none-eabi/9.2.1/../../../arm-none-eabi/lib/thumb/v7e-m+fp/hard/libc_nano.a(lib_a-fstatr.o)
 .ARM.attributes
                0x0000000000000be2       0x34 /usr/lib/gcc/arm-none-eabi/9.2.1/../../../arm-none-eabi/lib/thumb/v7e-m+fp/hard/libc_nano.a(lib_a-isattyr.o)
 .ARM.attributes
                0x0000000000000c16       0x34 /usr/lib/gcc/arm-none-eabi/9.2.1/../../../arm-none-eabi/lib/thumb/v7e-m+fp/hard/libc_nano.a(lib_a-lseekr.o)
 .ARM.attributes
                0x0000000000000c4a       0x34 /usr/lib/gcc/arm-none-eabi/9.2.1/../../../arm-none-eabi/lib/thumb/v7e-m+fp/hard/libc_nano.a(lib_a-nano-msizer.o)
 .ARM.attributes
                0x0000000000000c7e       0x34 /usr/lib/gcc/arm-none-eabi/9.2.1/../../../arm-none-eabi/lib/thumb/v7e-m+fp/hard/libc_nano.a(lib_a-readr.o)
 .ARM.attributes
                0x0000000000000cb2       0x32 /usr/lib/gcc/arm-none-eabi/9.2.1/thumb/v7e-m+fp/hard/crtend.o
 .ARM.attributes
                0x0000000000000ce4       0x1e /usr/lib/gcc/arm-none-eabi/9.2.1/thumb/v7e-m+fp/hard/crtn.o
OUTPUT(mcuboot_firmware.elf elf32-littlearm)
LOAD linker stubs
LOAD /usr/lib/gcc/arm-none-eabi/9.2.1/../../../arm-none-eabi/lib/thumb/v7e-m+fp/hard/libc.a
LOAD /usr/lib/gcc/arm-none-eabi/9.2.1/../../../arm-none-eabi/lib/thumb/v7e-m+fp/hard/libm.a
LOAD /usr/lib/gcc/arm-none-eabi/9.2.1/thumb/v7e-m+fp/hard/libgcc.a

.comment        0x0000000000000000       0xa7
 .comment       0x0000000000000000       0x59 /usr/lib/gcc/arm-none-eabi/9.2.1/thumb/v7e-m+fp/hard/crtbegin.o
                                         0x5a (size before relaxing)
 .comment       0x0000000000000059       0x4e /usr/lib/gcc/arm-none-eabi/9.2.1/../../../arm-none-eabi/lib/thumb/v7e-m+fp/hard/libc_nano.a(lib_a-impure.o)
                                         0x4f (size before relaxing)
 .comment       0x00000000000000a7       0x4f /usr/lib/gcc/arm-none-eabi/9.2.1/../../../arm-none-eabi/lib/thumb/v7e-m+fp/hard/libc_nano.a(lib_a-init.o)
 .comment       0x00000000000000a7       0x4f /usr/lib/gcc/arm-none-eabi/9.2.1/../../../arm-none-eabi/lib/thumb/v7e-m+fp/hard/libc_nano.a(lib_a-memset.o)
 .comment       0x00000000000000a7       0x4f /usr/lib/gcc/arm-none-eabi/9.2.1/../../../arm-none-eabi/lib/thumb/v7e-m+fp/hard/libnosys.a(_exit.o)
 .comment       0x00000000000000a7       0x5a /mnt/d/Marcelo/bitbucket/mcuboot/mcuboot/boot/bootutil/src/bootutil_misc.o
 .comment       0x00000000000000a7       0x5a /mnt/d/Marcelo/bitbucket/mcuboot/mcuboot/boot/bootutil/src/bootutil_public.o
 .comment       0x00000000000000a7       0x5a /mnt/d/Marcelo/bitbucket/mcuboot/mcuboot/boot/bootutil/src/fault_injection_hardening.o
 .comment       0x00000000000000a7       0x5a /mnt/d/Marcelo/bitbucket/mcuboot/mcuboot/boot/bootutil/src/image_ec256.o
 .comment       0x00000000000000a7       0x5a /mnt/d/Marcelo/bitbucket/mcuboot/mcuboot/boot/bootutil/src/image_validate.o
 .comment       0x00000000000000a7       0x5a /mnt/d/Marcelo/bitbucket/mcuboot/mcuboot/boot/bootutil/src/loader.o
 .comment       0x00000000000000a7       0x5a /mnt/d/Marcelo/bitbucket/mcuboot/mcuboot/boot/bootutil/src/swap_misc.o
 .comment       0x00000000000000a7       0x5a /mnt/d/Marcelo/bitbucket/mcuboot/mcuboot/boot/bootutil/src/swap_scratch.o
 .comment       0x00000000000000a7       0x5a /mnt/d/Marcelo/bitbucket/mcuboot/mcuboot/boot/bootutil/src/tlv.o
 .comment       0x00000000000000a7       0x5a mcuboot_main.o
 .comment       0x00000000000000a7       0x5a hal/Core/Src/main.o
 .comment       0x00000000000000a7       0x5a hal/Core/Src/stm32g4xx_it.o
 .comment       0x00000000000000a7       0x5a hal/Core/Src/stm32g4xx_hal_msp.o
 .comment       0x00000000000000a7       0x5a hal/Core/Src/system_stm32g4xx.o
 .comment       0x00000000000000a7       0x5a hal/Drivers/STM32G4xx_HAL_Driver/Src/stm32g4xx_hal_pwr_ex.o
 .comment       0x00000000000000a7       0x5a hal/Drivers/STM32G4xx_HAL_Driver/Src/stm32g4xx_hal_uart.o
 .comment       0x00000000000000a7       0x5a hal/Drivers/STM32G4xx_HAL_Driver/Src/stm32g4xx_hal_uart_ex.o
 .comment       0x00000000000000a7       0x5a hal/Drivers/STM32G4xx_HAL_Driver/Src/stm32g4xx_hal.o
 .comment       0x00000000000000a7       0x5a hal/Drivers/STM32G4xx_HAL_Driver/Src/stm32g4xx_hal_rcc.o
 .comment       0x00000000000000a7       0x5a hal/Drivers/STM32G4xx_HAL_Driver/Src/stm32g4xx_hal_rcc_ex.o
 .comment       0x00000000000000a7       0x5a hal/Drivers/STM32G4xx_HAL_Driver/Src/stm32g4xx_hal_gpio.o
 .comment       0x00000000000000a7       0x5a hal/Drivers/STM32G4xx_HAL_Driver/Src/stm32g4xx_hal_cortex.o
 .comment       0x00000000000000a7       0x5a /usr/lib/gcc/arm-none-eabi/9.2.1/thumb/v7e-m+fp/hard/libgcc.a(_udivmoddi4.o)
 .comment       0x00000000000000a7       0x4f /usr/lib/gcc/arm-none-eabi/9.2.1/../../../arm-none-eabi/lib/thumb/v7e-m+fp/hard/libc_nano.a(lib_a-assert.o)
 .comment       0x00000000000000a7       0x4f /usr/lib/gcc/arm-none-eabi/9.2.1/../../../arm-none-eabi/lib/thumb/v7e-m+fp/hard/libc_nano.a(lib_a-fprintf.o)
 .comment       0x00000000000000a7       0x4f /usr/lib/gcc/arm-none-eabi/9.2.1/../../../arm-none-eabi/lib/thumb/v7e-m+fp/hard/libc_nano.a(lib_a-memcmp.o)
 .comment       0x00000000000000a7       0x4f /usr/lib/gcc/arm-none-eabi/9.2.1/../../../arm-none-eabi/lib/thumb/v7e-m+fp/hard/libc_nano.a(lib_a-nano-freer.o)
 .comment       0x00000000000000a7       0x4f /usr/lib/gcc/arm-none-eabi/9.2.1/../../../arm-none-eabi/lib/thumb/v7e-m+fp/hard/libc_nano.a(lib_a-nano-mallocr.o)
 .comment       0x00000000000000a7       0x4f /usr/lib/gcc/arm-none-eabi/9.2.1/../../../arm-none-eabi/lib/thumb/v7e-m+fp/hard/libc_nano.a(lib_a-nano-vfprintf.o)
 .comment       0x00000000000000a7       0x4f /usr/lib/gcc/arm-none-eabi/9.2.1/../../../arm-none-eabi/lib/thumb/v7e-m+fp/hard/libc_nano.a(lib_a-nano-vfprintf_i.o)
 .comment       0x00000000000000a7       0x4f /usr/lib/gcc/arm-none-eabi/9.2.1/../../../arm-none-eabi/lib/thumb/v7e-m+fp/hard/libc_nano.a(lib_a-printf.o)
 .comment       0x00000000000000a7       0x4f /usr/lib/gcc/arm-none-eabi/9.2.1/../../../arm-none-eabi/lib/thumb/v7e-m+fp/hard/libc_nano.a(lib_a-sbrkr.o)
 .comment       0x00000000000000a7       0x4f /usr/lib/gcc/arm-none-eabi/9.2.1/../../../arm-none-eabi/lib/thumb/v7e-m+fp/hard/libc_nano.a(lib_a-wbuf.o)
 .comment       0x00000000000000a7       0x4f /usr/lib/gcc/arm-none-eabi/9.2.1/../../../arm-none-eabi/lib/thumb/v7e-m+fp/hard/libc_nano.a(lib_a-wsetup.o)
 .comment       0x00000000000000a7       0x4f /usr/lib/gcc/arm-none-eabi/9.2.1/../../../arm-none-eabi/lib/thumb/v7e-m+fp/hard/libc_nano.a(lib_a-abort.o)
 .comment       0x00000000000000a7       0x4f /usr/lib/gcc/arm-none-eabi/9.2.1/../../../arm-none-eabi/lib/thumb/v7e-m+fp/hard/libc_nano.a(lib_a-fflush.o)
 .comment       0x00000000000000a7       0x4f /usr/lib/gcc/arm-none-eabi/9.2.1/../../../arm-none-eabi/lib/thumb/v7e-m+fp/hard/libc_nano.a(lib_a-findfp.o)
 .comment       0x00000000000000a7       0x4f /usr/lib/gcc/arm-none-eabi/9.2.1/../../../arm-none-eabi/lib/thumb/v7e-m+fp/hard/libc_nano.a(lib_a-fvwrite.o)
 .comment       0x00000000000000a7       0x4f /usr/lib/gcc/arm-none-eabi/9.2.1/../../../arm-none-eabi/lib/thumb/v7e-m+fp/hard/libc_nano.a(lib_a-fwalk.o)
 .comment       0x00000000000000a7       0x4f /usr/lib/gcc/arm-none-eabi/9.2.1/../../../arm-none-eabi/lib/thumb/v7e-m+fp/hard/libc_nano.a(lib_a-makebuf.o)
 .comment       0x00000000000000a7       0x4f /usr/lib/gcc/arm-none-eabi/9.2.1/../../../arm-none-eabi/lib/thumb/v7e-m+fp/hard/libc_nano.a(lib_a-memmove.o)
 .comment       0x00000000000000a7       0x4f /usr/lib/gcc/arm-none-eabi/9.2.1/../../../arm-none-eabi/lib/thumb/v7e-m+fp/hard/libc_nano.a(lib_a-mlock.o)
 .comment       0x00000000000000a7       0x4f /usr/lib/gcc/arm-none-eabi/9.2.1/../../../arm-none-eabi/lib/thumb/v7e-m+fp/hard/libc_nano.a(lib_a-nano-reallocr.o)
 .comment       0x00000000000000a7       0x4f /usr/lib/gcc/arm-none-eabi/9.2.1/../../../arm-none-eabi/lib/thumb/v7e-m+fp/hard/libc_nano.a(lib_a-reent.o)
 .comment       0x00000000000000a7       0x4f /usr/lib/gcc/arm-none-eabi/9.2.1/../../../arm-none-eabi/lib/thumb/v7e-m+fp/hard/libc_nano.a(lib_a-signal.o)
 .comment       0x00000000000000a7       0x4f /usr/lib/gcc/arm-none-eabi/9.2.1/../../../arm-none-eabi/lib/thumb/v7e-m+fp/hard/libc_nano.a(lib_a-signalr.o)
 .comment       0x00000000000000a7       0x4f /usr/lib/gcc/arm-none-eabi/9.2.1/../../../arm-none-eabi/lib/thumb/v7e-m+fp/hard/libc_nano.a(lib_a-stdio.o)
 .comment       0x00000000000000a7       0x4f /usr/lib/gcc/arm-none-eabi/9.2.1/../../../arm-none-eabi/lib/thumb/v7e-m+fp/hard/libc_nano.a(lib_a-writer.o)
 .comment       0x00000000000000a7       0x4f /usr/lib/gcc/arm-none-eabi/9.2.1/../../../arm-none-eabi/lib/thumb/v7e-m+fp/hard/libc_nano.a(lib_a-closer.o)
 .comment       0x00000000000000a7       0x4f /usr/lib/gcc/arm-none-eabi/9.2.1/../../../arm-none-eabi/lib/thumb/v7e-m+fp/hard/libc_nano.a(lib_a-fstatr.o)
 .comment       0x00000000000000a7       0x4f /usr/lib/gcc/arm-none-eabi/9.2.1/../../../arm-none-eabi/lib/thumb/v7e-m+fp/hard/libc_nano.a(lib_a-isattyr.o)
 .comment       0x00000000000000a7       0x4f /usr/lib/gcc/arm-none-eabi/9.2.1/../../../arm-none-eabi/lib/thumb/v7e-m+fp/hard/libc_nano.a(lib_a-lseekr.o)
 .comment       0x00000000000000a7       0x4f /usr/lib/gcc/arm-none-eabi/9.2.1/../../../arm-none-eabi/lib/thumb/v7e-m+fp/hard/libc_nano.a(lib_a-nano-msizer.o)
 .comment       0x00000000000000a7       0x4f /usr/lib/gcc/arm-none-eabi/9.2.1/../../../arm-none-eabi/lib/thumb/v7e-m+fp/hard/libc_nano.a(lib_a-readr.o)
 .comment       0x00000000000000a7       0x5a /usr/lib/gcc/arm-none-eabi/9.2.1/thumb/v7e-m+fp/hard/crtend.o

.debug_info     0x0000000000000000    0x2e6d7
 .debug_info    0x0000000000000000      0x92a /usr/lib/gcc/arm-none-eabi/9.2.1/../../../arm-none-eabi/lib/thumb/v7e-m+fp/hard/libc_nano.a(lib_a-impure.o)
 .debug_info    0x000000000000092a      0x11a /usr/lib/gcc/arm-none-eabi/9.2.1/../../../arm-none-eabi/lib/thumb/v7e-m+fp/hard/libc_nano.a(lib_a-init.o)
 .debug_info    0x0000000000000a44      0xf21 /usr/lib/gcc/arm-none-eabi/9.2.1/../../../arm-none-eabi/lib/thumb/v7e-m+fp/hard/libc_nano.a(lib_a-memset.o)
 .debug_info    0x0000000000001965       0xa3 /usr/lib/gcc/arm-none-eabi/9.2.1/../../../arm-none-eabi/lib/thumb/v7e-m+fp/hard/libnosys.a(_exit.o)
 .debug_info    0x0000000000001a08      0xdcb /mnt/d/Marcelo/bitbucket/mcuboot/mcuboot/boot/bootutil/src/bootutil_misc.o
 .debug_info    0x00000000000027d3     0x128c /mnt/d/Marcelo/bitbucket/mcuboot/mcuboot/boot/bootutil/src/bootutil_public.o
 .debug_info    0x0000000000003a5f       0x65 /mnt/d/Marcelo/bitbucket/mcuboot/mcuboot/boot/bootutil/src/fault_injection_hardening.o
 .debug_info    0x0000000000003ac4      0xed4 /mnt/d/Marcelo/bitbucket/mcuboot/mcuboot/boot/bootutil/src/image_ec256.o
 .debug_info    0x0000000000004998     0x112e /mnt/d/Marcelo/bitbucket/mcuboot/mcuboot/boot/bootutil/src/image_validate.o
 .debug_info    0x0000000000005ac6     0x1e50 /mnt/d/Marcelo/bitbucket/mcuboot/mcuboot/boot/bootutil/src/loader.o
 .debug_info    0x0000000000007916     0x109f /mnt/d/Marcelo/bitbucket/mcuboot/mcuboot/boot/bootutil/src/swap_misc.o
 .debug_info    0x00000000000089b5     0x1432 /mnt/d/Marcelo/bitbucket/mcuboot/mcuboot/boot/bootutil/src/swap_scratch.o
 .debug_info    0x0000000000009de7      0xc59 /mnt/d/Marcelo/bitbucket/mcuboot/mcuboot/boot/bootutil/src/tlv.o
 .debug_info    0x000000000000aa40      0xada mcuboot_main.o
 .debug_info    0x000000000000b51a      0xed0 hal/Core/Src/main.o
 .debug_info    0x000000000000c3ea      0x325 hal/Core/Src/stm32g4xx_it.o
 .debug_info    0x000000000000c70f      0xd56 hal/Core/Src/stm32g4xx_hal_msp.o
 .debug_info    0x000000000000d465      0x723 hal/Core/Src/system_stm32g4xx.o
 .debug_info    0x000000000000db88       0x22 hal/startup_stm32g431xx.o
 .debug_info    0x000000000000dbaa      0xb45 hal/Drivers/STM32G4xx_HAL_Driver/Src/stm32g4xx_hal_pwr_ex.o
 .debug_info    0x000000000000e6ef     0x1d6e hal/Drivers/STM32G4xx_HAL_Driver/Src/stm32g4xx_hal_uart.o
 .debug_info    0x000000000001045d      0xeba hal/Drivers/STM32G4xx_HAL_Driver/Src/stm32g4xx_hal_uart_ex.o
 .debug_info    0x0000000000011317      0xc4e hal/Drivers/STM32G4xx_HAL_Driver/Src/stm32g4xx_hal.o
 .debug_info    0x0000000000011f65      0xd6c hal/Drivers/STM32G4xx_HAL_Driver/Src/stm32g4xx_hal_rcc.o
 .debug_info    0x0000000000012cd1      0xe6b hal/Drivers/STM32G4xx_HAL_Driver/Src/stm32g4xx_hal_rcc_ex.o
 .debug_info    0x0000000000013b3c      0xa06 hal/Drivers/STM32G4xx_HAL_Driver/Src/stm32g4xx_hal_gpio.o
 .debug_info    0x0000000000014542      0xf83 hal/Drivers/STM32G4xx_HAL_Driver/Src/stm32g4xx_hal_cortex.o
 .debug_info    0x00000000000154c5       0x26 /usr/lib/gcc/arm-none-eabi/9.2.1/thumb/v7e-m+fp/hard/libgcc.a(_aeabi_uldivmod.o)
 .debug_info    0x00000000000154eb      0xd7c /usr/lib/gcc/arm-none-eabi/9.2.1/thumb/v7e-m+fp/hard/libgcc.a(_udivmoddi4.o)
 .debug_info    0x0000000000016267       0x26 /usr/lib/gcc/arm-none-eabi/9.2.1/thumb/v7e-m+fp/hard/libgcc.a(_dvmd_tls.o)
 .debug_info    0x000000000001628d      0xa41 /usr/lib/gcc/arm-none-eabi/9.2.1/../../../arm-none-eabi/lib/thumb/v7e-m+fp/hard/libc_nano.a(lib_a-assert.o)
 .debug_info    0x0000000000016cce      0xa7a /usr/lib/gcc/arm-none-eabi/9.2.1/../../../arm-none-eabi/lib/thumb/v7e-m+fp/hard/libc_nano.a(lib_a-fprintf.o)
 .debug_info    0x0000000000017748      0x9c2 /usr/lib/gcc/arm-none-eabi/9.2.1/../../../arm-none-eabi/lib/thumb/v7e-m+fp/hard/libc_nano.a(lib_a-memcmp.o)
 .debug_info    0x000000000001810a       0x26 /usr/lib/gcc/arm-none-eabi/9.2.1/../../../arm-none-eabi/lib/thumb/v7e-m+fp/hard/libc_nano.a(lib_a-memcpy.o)
 .debug_info    0x0000000000018130      0xb85 /usr/lib/gcc/arm-none-eabi/9.2.1/../../../arm-none-eabi/lib/thumb/v7e-m+fp/hard/libc_nano.a(lib_a-nano-freer.o)
 .debug_info    0x0000000000018cb5      0xc5a /usr/lib/gcc/arm-none-eabi/9.2.1/../../../arm-none-eabi/lib/thumb/v7e-m+fp/hard/libc_nano.a(lib_a-nano-mallocr.o)
 .debug_info    0x000000000001990f     0x176a /usr/lib/gcc/arm-none-eabi/9.2.1/../../../arm-none-eabi/lib/thumb/v7e-m+fp/hard/libc_nano.a(lib_a-nano-vfprintf.o)
 .debug_info    0x000000000001b079     0x1592 /usr/lib/gcc/arm-none-eabi/9.2.1/../../../arm-none-eabi/lib/thumb/v7e-m+fp/hard/libc_nano.a(lib_a-nano-vfprintf_i.o)
 .debug_info    0x000000000001c60b      0xc67 /usr/lib/gcc/arm-none-eabi/9.2.1/../../../arm-none-eabi/lib/thumb/v7e-m+fp/hard/libc_nano.a(lib_a-printf.o)
 .debug_info    0x000000000001d272      0x9fb /usr/lib/gcc/arm-none-eabi/9.2.1/../../../arm-none-eabi/lib/thumb/v7e-m+fp/hard/libc_nano.a(lib_a-sbrkr.o)
 .debug_info    0x000000000001dc6d      0xc90 /usr/lib/gcc/arm-none-eabi/9.2.1/../../../arm-none-eabi/lib/thumb/v7e-m+fp/hard/libc_nano.a(lib_a-wbuf.o)
 .debug_info    0x000000000001e8fd      0xbfa /usr/lib/gcc/arm-none-eabi/9.2.1/../../../arm-none-eabi/lib/thumb/v7e-m+fp/hard/libc_nano.a(lib_a-wsetup.o)
 .debug_info    0x000000000001f4f7      0x9b5 /usr/lib/gcc/arm-none-eabi/9.2.1/../../../arm-none-eabi/lib/thumb/v7e-m+fp/hard/libc_nano.a(lib_a-abort.o)
 .debug_info    0x000000000001feac      0xd73 /usr/lib/gcc/arm-none-eabi/9.2.1/../../../arm-none-eabi/lib/thumb/v7e-m+fp/hard/libc_nano.a(lib_a-fflush.o)
 .debug_info    0x0000000000020c1f     0x11a8 /usr/lib/gcc/arm-none-eabi/9.2.1/../../../arm-none-eabi/lib/thumb/v7e-m+fp/hard/libc_nano.a(lib_a-findfp.o)
 .debug_info    0x0000000000021dc7      0xeed /usr/lib/gcc/arm-none-eabi/9.2.1/../../../arm-none-eabi/lib/thumb/v7e-m+fp/hard/libc_nano.a(lib_a-fvwrite.o)
 .debug_info    0x0000000000022cb4      0xca4 /usr/lib/gcc/arm-none-eabi/9.2.1/../../../arm-none-eabi/lib/thumb/v7e-m+fp/hard/libc_nano.a(lib_a-fwalk.o)
 .debug_info    0x0000000000023958      0xf68 /usr/lib/gcc/arm-none-eabi/9.2.1/../../../arm-none-eabi/lib/thumb/v7e-m+fp/hard/libc_nano.a(lib_a-makebuf.o)
 .debug_info    0x00000000000248c0       0x26 /usr/lib/gcc/arm-none-eabi/9.2.1/../../../arm-none-eabi/lib/thumb/v7e-m+fp/hard/libc_nano.a(lib_a-memchr.o)
 .debug_info    0x00000000000248e6      0xf2b /usr/lib/gcc/arm-none-eabi/9.2.1/../../../arm-none-eabi/lib/thumb/v7e-m+fp/hard/libc_nano.a(lib_a-memmove.o)
 .debug_info    0x0000000000025811      0x961 /usr/lib/gcc/arm-none-eabi/9.2.1/../../../arm-none-eabi/lib/thumb/v7e-m+fp/hard/libc_nano.a(lib_a-mlock.o)
 .debug_info    0x0000000000026172      0xb77 /usr/lib/gcc/arm-none-eabi/9.2.1/../../../arm-none-eabi/lib/thumb/v7e-m+fp/hard/libc_nano.a(lib_a-nano-reallocr.o)
 .debug_info    0x0000000000026ce9      0xb0f /usr/lib/gcc/arm-none-eabi/9.2.1/../../../arm-none-eabi/lib/thumb/v7e-m+fp/hard/libc_nano.a(lib_a-reent.o)
 .debug_info    0x00000000000277f8      0xd5c /usr/lib/gcc/arm-none-eabi/9.2.1/../../../arm-none-eabi/lib/thumb/v7e-m+fp/hard/libc_nano.a(lib_a-signal.o)
 .debug_info    0x0000000000028554      0xa44 /usr/lib/gcc/arm-none-eabi/9.2.1/../../../arm-none-eabi/lib/thumb/v7e-m+fp/hard/libc_nano.a(lib_a-signalr.o)
 .debug_info    0x0000000000028f98      0xe67 /usr/lib/gcc/arm-none-eabi/9.2.1/../../../arm-none-eabi/lib/thumb/v7e-m+fp/hard/libc_nano.a(lib_a-stdio.o)
 .debug_info    0x0000000000029dff      0xa2c /usr/lib/gcc/arm-none-eabi/9.2.1/../../../arm-none-eabi/lib/thumb/v7e-m+fp/hard/libc_nano.a(lib_a-writer.o)
 .debug_info    0x000000000002a82b      0x9d8 /usr/lib/gcc/arm-none-eabi/9.2.1/../../../arm-none-eabi/lib/thumb/v7e-m+fp/hard/libc_nano.a(lib_a-closer.o)
 .debug_info    0x000000000002b203      0xc24 /usr/lib/gcc/arm-none-eabi/9.2.1/../../../arm-none-eabi/lib/thumb/v7e-m+fp/hard/libc_nano.a(lib_a-fstatr.o)
 .debug_info    0x000000000002be27      0x9d8 /usr/lib/gcc/arm-none-eabi/9.2.1/../../../arm-none-eabi/lib/thumb/v7e-m+fp/hard/libc_nano.a(lib_a-isattyr.o)
 .debug_info    0x000000000002c7ff      0xa0d /usr/lib/gcc/arm-none-eabi/9.2.1/../../../arm-none-eabi/lib/thumb/v7e-m+fp/hard/libc_nano.a(lib_a-lseekr.o)
 .debug_info    0x000000000002d20c      0xaa6 /usr/lib/gcc/arm-none-eabi/9.2.1/../../../arm-none-eabi/lib/thumb/v7e-m+fp/hard/libc_nano.a(lib_a-nano-msizer.o)
 .debug_info    0x000000000002dcb2      0xa25 /usr/lib/gcc/arm-none-eabi/9.2.1/../../../arm-none-eabi/lib/thumb/v7e-m+fp/hard/libc_nano.a(lib_a-readr.o)

.debug_abbrev   0x0000000000000000     0x8066
 .debug_abbrev  0x0000000000000000      0x17a /usr/lib/gcc/arm-none-eabi/9.2.1/../../../arm-none-eabi/lib/thumb/v7e-m+fp/hard/libc_nano.a(lib_a-impure.o)
 .debug_abbrev  0x000000000000017a       0xcc /usr/lib/gcc/arm-none-eabi/9.2.1/../../../arm-none-eabi/lib/thumb/v7e-m+fp/hard/libc_nano.a(lib_a-init.o)
 .debug_abbrev  0x0000000000000246      0x1d9 /usr/lib/gcc/arm-none-eabi/9.2.1/../../../arm-none-eabi/lib/thumb/v7e-m+fp/hard/libc_nano.a(lib_a-memset.o)
 .debug_abbrev  0x000000000000041f       0x6a /usr/lib/gcc/arm-none-eabi/9.2.1/../../../arm-none-eabi/lib/thumb/v7e-m+fp/hard/libnosys.a(_exit.o)
 .debug_abbrev  0x0000000000000489      0x2bf /mnt/d/Marcelo/bitbucket/mcuboot/mcuboot/boot/bootutil/src/bootutil_misc.o
 .debug_abbrev  0x0000000000000748      0x2f7 /mnt/d/Marcelo/bitbucket/mcuboot/mcuboot/boot/bootutil/src/bootutil_public.o
 .debug_abbrev  0x0000000000000a3f       0x4c /mnt/d/Marcelo/bitbucket/mcuboot/mcuboot/boot/bootutil/src/fault_injection_hardening.o
 .debug_abbrev  0x0000000000000a8b      0x248 /mnt/d/Marcelo/bitbucket/mcuboot/mcuboot/boot/bootutil/src/image_ec256.o
 .debug_abbrev  0x0000000000000cd3      0x334 /mnt/d/Marcelo/bitbucket/mcuboot/mcuboot/boot/bootutil/src/image_validate.o
 .debug_abbrev  0x0000000000001007      0x412 /mnt/d/Marcelo/bitbucket/mcuboot/mcuboot/boot/bootutil/src/loader.o
 .debug_abbrev  0x0000000000001419      0x274 /mnt/d/Marcelo/bitbucket/mcuboot/mcuboot/boot/bootutil/src/swap_misc.o
 .debug_abbrev  0x000000000000168d      0x348 /mnt/d/Marcelo/bitbucket/mcuboot/mcuboot/boot/bootutil/src/swap_scratch.o
 .debug_abbrev  0x00000000000019d5      0x1f5 /mnt/d/Marcelo/bitbucket/mcuboot/mcuboot/boot/bootutil/src/tlv.o
 .debug_abbrev  0x0000000000001bca      0x1d1 mcuboot_main.o
 .debug_abbrev  0x0000000000001d9b      0x232 hal/Core/Src/main.o
 .debug_abbrev  0x0000000000001fcd       0xef hal/Core/Src/stm32g4xx_it.o
 .debug_abbrev  0x00000000000020bc      0x1a9 hal/Core/Src/stm32g4xx_hal_msp.o
 .debug_abbrev  0x0000000000002265      0x162 hal/Core/Src/system_stm32g4xx.o
 .debug_abbrev  0x00000000000023c7       0x12 hal/startup_stm32g431xx.o
 .debug_abbrev  0x00000000000023d9      0x226 hal/Drivers/STM32G4xx_HAL_Driver/Src/stm32g4xx_hal_pwr_ex.o
 .debug_abbrev  0x00000000000025ff      0x24b hal/Drivers/STM32G4xx_HAL_Driver/Src/stm32g4xx_hal_uart.o
 .debug_abbrev  0x000000000000284a      0x207 hal/Drivers/STM32G4xx_HAL_Driver/Src/stm32g4xx_hal_uart_ex.o
 .debug_abbrev  0x0000000000002a51      0x224 hal/Drivers/STM32G4xx_HAL_Driver/Src/stm32g4xx_hal.o
 .debug_abbrev  0x0000000000002c75      0x272 hal/Drivers/STM32G4xx_HAL_Driver/Src/stm32g4xx_hal_rcc.o
 .debug_abbrev  0x0000000000002ee7      0x22d hal/Drivers/STM32G4xx_HAL_Driver/Src/stm32g4xx_hal_rcc_ex.o
 .debug_abbrev  0x0000000000003114      0x1e5 hal/Drivers/STM32G4xx_HAL_Driver/Src/stm32g4xx_hal_gpio.o
 .debug_abbrev  0x00000000000032f9      0x330 hal/Drivers/STM32G4xx_HAL_Driver/Src/stm32g4xx_hal_cortex.o
 .debug_abbrev  0x0000000000003629       0x14 /usr/lib/gcc/arm-none-eabi/9.2.1/thumb/v7e-m+fp/hard/libgcc.a(_aeabi_uldivmod.o)
 .debug_abbrev  0x000000000000363d      0x1c2 /usr/lib/gcc/arm-none-eabi/9.2.1/thumb/v7e-m+fp/hard/libgcc.a(_udivmoddi4.o)
 .debug_abbrev  0x00000000000037ff       0x14 /usr/lib/gcc/arm-none-eabi/9.2.1/thumb/v7e-m+fp/hard/libgcc.a(_dvmd_tls.o)
 .debug_abbrev  0x0000000000003813      0x1ff /usr/lib/gcc/arm-none-eabi/9.2.1/../../../arm-none-eabi/lib/thumb/v7e-m+fp/hard/libc_nano.a(lib_a-assert.o)
 .debug_abbrev  0x0000000000003a12      0x23c /usr/lib/gcc/arm-none-eabi/9.2.1/../../../arm-none-eabi/lib/thumb/v7e-m+fp/hard/libc_nano.a(lib_a-fprintf.o)
 .debug_abbrev  0x0000000000003c4e      0x1af /usr/lib/gcc/arm-none-eabi/9.2.1/../../../arm-none-eabi/lib/thumb/v7e-m+fp/hard/libc_nano.a(lib_a-memcmp.o)
 .debug_abbrev  0x0000000000003dfd       0x14 /usr/lib/gcc/arm-none-eabi/9.2.1/../../../arm-none-eabi/lib/thumb/v7e-m+fp/hard/libc_nano.a(lib_a-memcpy.o)
 .debug_abbrev  0x0000000000003e11      0x286 /usr/lib/gcc/arm-none-eabi/9.2.1/../../../arm-none-eabi/lib/thumb/v7e-m+fp/hard/libc_nano.a(lib_a-nano-freer.o)
 .debug_abbrev  0x0000000000004097      0x2d1 /usr/lib/gcc/arm-none-eabi/9.2.1/../../../arm-none-eabi/lib/thumb/v7e-m+fp/hard/libc_nano.a(lib_a-nano-mallocr.o)
 .debug_abbrev  0x0000000000004368      0x337 /usr/lib/gcc/arm-none-eabi/9.2.1/../../../arm-none-eabi/lib/thumb/v7e-m+fp/hard/libc_nano.a(lib_a-nano-vfprintf.o)
 .debug_abbrev  0x000000000000469f      0x2dc /usr/lib/gcc/arm-none-eabi/9.2.1/../../../arm-none-eabi/lib/thumb/v7e-m+fp/hard/libc_nano.a(lib_a-nano-vfprintf_i.o)
 .debug_abbrev  0x000000000000497b      0x29f /usr/lib/gcc/arm-none-eabi/9.2.1/../../../arm-none-eabi/lib/thumb/v7e-m+fp/hard/libc_nano.a(lib_a-printf.o)
 .debug_abbrev  0x0000000000004c1a      0x212 /usr/lib/gcc/arm-none-eabi/9.2.1/../../../arm-none-eabi/lib/thumb/v7e-m+fp/hard/libc_nano.a(lib_a-sbrkr.o)
 .debug_abbrev  0x0000000000004e2c      0x285 /usr/lib/gcc/arm-none-eabi/9.2.1/../../../arm-none-eabi/lib/thumb/v7e-m+fp/hard/libc_nano.a(lib_a-wbuf.o)
 .debug_abbrev  0x00000000000050b1      0x23a /usr/lib/gcc/arm-none-eabi/9.2.1/../../../arm-none-eabi/lib/thumb/v7e-m+fp/hard/libc_nano.a(lib_a-wsetup.o)
 .debug_abbrev  0x00000000000052eb      0x1cd /usr/lib/gcc/arm-none-eabi/9.2.1/../../../arm-none-eabi/lib/thumb/v7e-m+fp/hard/libc_nano.a(lib_a-abort.o)
 .debug_abbrev  0x00000000000054b8      0x2e4 /usr/lib/gcc/arm-none-eabi/9.2.1/../../../arm-none-eabi/lib/thumb/v7e-m+fp/hard/libc_nano.a(lib_a-fflush.o)
 .debug_abbrev  0x000000000000579c      0x3dc /usr/lib/gcc/arm-none-eabi/9.2.1/../../../arm-none-eabi/lib/thumb/v7e-m+fp/hard/libc_nano.a(lib_a-findfp.o)
 .debug_abbrev  0x0000000000005b78      0x270 /usr/lib/gcc/arm-none-eabi/9.2.1/../../../arm-none-eabi/lib/thumb/v7e-m+fp/hard/libc_nano.a(lib_a-fvwrite.o)
 .debug_abbrev  0x0000000000005de8      0x210 /usr/lib/gcc/arm-none-eabi/9.2.1/../../../arm-none-eabi/lib/thumb/v7e-m+fp/hard/libc_nano.a(lib_a-fwalk.o)
 .debug_abbrev  0x0000000000005ff8      0x2f6 /usr/lib/gcc/arm-none-eabi/9.2.1/../../../arm-none-eabi/lib/thumb/v7e-m+fp/hard/libc_nano.a(lib_a-makebuf.o)
 .debug_abbrev  0x00000000000062ee       0x14 /usr/lib/gcc/arm-none-eabi/9.2.1/../../../arm-none-eabi/lib/thumb/v7e-m+fp/hard/libc_nano.a(lib_a-memchr.o)
 .debug_abbrev  0x0000000000006302      0x1de /usr/lib/gcc/arm-none-eabi/9.2.1/../../../arm-none-eabi/lib/thumb/v7e-m+fp/hard/libc_nano.a(lib_a-memmove.o)
 .debug_abbrev  0x00000000000064e0      0x1c5 /usr/lib/gcc/arm-none-eabi/9.2.1/../../../arm-none-eabi/lib/thumb/v7e-m+fp/hard/libc_nano.a(lib_a-mlock.o)
 .debug_abbrev  0x00000000000066a5      0x22a /usr/lib/gcc/arm-none-eabi/9.2.1/../../../arm-none-eabi/lib/thumb/v7e-m+fp/hard/libc_nano.a(lib_a-nano-reallocr.o)
 .debug_abbrev  0x00000000000068cf      0x268 /usr/lib/gcc/arm-none-eabi/9.2.1/../../../arm-none-eabi/lib/thumb/v7e-m+fp/hard/libc_nano.a(lib_a-reent.o)
 .debug_abbrev  0x0000000000006b37      0x32d /usr/lib/gcc/arm-none-eabi/9.2.1/../../../arm-none-eabi/lib/thumb/v7e-m+fp/hard/libc_nano.a(lib_a-signal.o)
 .debug_abbrev  0x0000000000006e64      0x217 /usr/lib/gcc/arm-none-eabi/9.2.1/../../../arm-none-eabi/lib/thumb/v7e-m+fp/hard/libc_nano.a(lib_a-signalr.o)
 .debug_abbrev  0x000000000000707b      0x26f /usr/lib/gcc/arm-none-eabi/9.2.1/../../../arm-none-eabi/lib/thumb/v7e-m+fp/hard/libc_nano.a(lib_a-stdio.o)
 .debug_abbrev  0x00000000000072ea      0x1ec /usr/lib/gcc/arm-none-eabi/9.2.1/../../../arm-none-eabi/lib/thumb/v7e-m+fp/hard/libc_nano.a(lib_a-writer.o)
 .debug_abbrev  0x00000000000074d6      0x1e7 /usr/lib/gcc/arm-none-eabi/9.2.1/../../../arm-none-eabi/lib/thumb/v7e-m+fp/hard/libc_nano.a(lib_a-closer.o)
 .debug_abbrev  0x00000000000076bd      0x1fb /usr/lib/gcc/arm-none-eabi/9.2.1/../../../arm-none-eabi/lib/thumb/v7e-m+fp/hard/libc_nano.a(lib_a-fstatr.o)
 .debug_abbrev  0x00000000000078b8      0x1e7 /usr/lib/gcc/arm-none-eabi/9.2.1/../../../arm-none-eabi/lib/thumb/v7e-m+fp/hard/libc_nano.a(lib_a-isattyr.o)
 .debug_abbrev  0x0000000000007a9f      0x1fb /usr/lib/gcc/arm-none-eabi/9.2.1/../../../arm-none-eabi/lib/thumb/v7e-m+fp/hard/libc_nano.a(lib_a-lseekr.o)
 .debug_abbrev  0x0000000000007c9a      0x1e5 /usr/lib/gcc/arm-none-eabi/9.2.1/../../../arm-none-eabi/lib/thumb/v7e-m+fp/hard/libc_nano.a(lib_a-nano-msizer.o)
 .debug_abbrev  0x0000000000007e7f      0x1e7 /usr/lib/gcc/arm-none-eabi/9.2.1/../../../arm-none-eabi/lib/thumb/v7e-m+fp/hard/libc_nano.a(lib_a-readr.o)

.debug_aranges  0x0000000000000000     0x12b8
 .debug_aranges
                0x0000000000000000       0x18 /usr/lib/gcc/arm-none-eabi/9.2.1/../../../arm-none-eabi/lib/thumb/v7e-m+fp/hard/libc_nano.a(lib_a-impure.o)
 .debug_aranges
                0x0000000000000018       0x20 /usr/lib/gcc/arm-none-eabi/9.2.1/../../../arm-none-eabi/lib/thumb/v7e-m+fp/hard/libc_nano.a(lib_a-init.o)
 .debug_aranges
                0x0000000000000038       0x20 /usr/lib/gcc/arm-none-eabi/9.2.1/../../../arm-none-eabi/lib/thumb/v7e-m+fp/hard/libc_nano.a(lib_a-memset.o)
 .debug_aranges
                0x0000000000000058       0x20 /usr/lib/gcc/arm-none-eabi/9.2.1/../../../arm-none-eabi/lib/thumb/v7e-m+fp/hard/libnosys.a(_exit.o)
 .debug_aranges
                0x0000000000000078       0x90 /mnt/d/Marcelo/bitbucket/mcuboot/mcuboot/boot/bootutil/src/bootutil_misc.o
 .debug_aranges
                0x0000000000000108       0xe0 /mnt/d/Marcelo/bitbucket/mcuboot/mcuboot/boot/bootutil/src/bootutil_public.o
 .debug_aranges
                0x00000000000001e8       0x18 /mnt/d/Marcelo/bitbucket/mcuboot/mcuboot/boot/bootutil/src/fault_injection_hardening.o
 .debug_aranges
                0x0000000000000200       0x40 /mnt/d/Marcelo/bitbucket/mcuboot/mcuboot/boot/bootutil/src/image_ec256.o
 .debug_aranges
                0x0000000000000240       0x50 /mnt/d/Marcelo/bitbucket/mcuboot/mcuboot/boot/bootutil/src/image_validate.o
 .debug_aranges
                0x0000000000000290      0x128 /mnt/d/Marcelo/bitbucket/mcuboot/mcuboot/boot/bootutil/src/loader.o
 .debug_aranges
                0x00000000000003b8       0x70 /mnt/d/Marcelo/bitbucket/mcuboot/mcuboot/boot/bootutil/src/swap_misc.o
 .debug_aranges
                0x0000000000000428       0x90 /mnt/d/Marcelo/bitbucket/mcuboot/mcuboot/boot/bootutil/src/swap_scratch.o
 .debug_aranges
                0x00000000000004b8       0x28 /mnt/d/Marcelo/bitbucket/mcuboot/mcuboot/boot/bootutil/src/tlv.o
 .debug_aranges
                0x00000000000004e0       0x28 mcuboot_main.o
 .debug_aranges
                0x0000000000000508       0x40 hal/Core/Src/main.o
 .debug_aranges
                0x0000000000000548       0x60 hal/Core/Src/stm32g4xx_it.o
 .debug_aranges
                0x00000000000005a8       0x30 hal/Core/Src/stm32g4xx_hal_msp.o
 .debug_aranges
                0x00000000000005d8       0x28 hal/Core/Src/system_stm32g4xx.o
 .debug_aranges
                0x0000000000000600       0x28 hal/startup_stm32g431xx.o
 .debug_aranges
                0x0000000000000628      0x140 hal/Drivers/STM32G4xx_HAL_Driver/Src/stm32g4xx_hal_pwr_ex.o
 .debug_aranges
                0x0000000000000768      0x248 hal/Drivers/STM32G4xx_HAL_Driver/Src/stm32g4xx_hal_uart.o
 .debug_aranges
                0x00000000000009b0       0xa0 hal/Drivers/STM32G4xx_HAL_Driver/Src/stm32g4xx_hal_uart_ex.o
 .debug_aranges
                0x0000000000000a50      0x130 hal/Drivers/STM32G4xx_HAL_Driver/Src/stm32g4xx_hal.o
 .debug_aranges
                0x0000000000000b80       0x98 hal/Drivers/STM32G4xx_HAL_Driver/Src/stm32g4xx_hal_rcc.o
 .debug_aranges
                0x0000000000000c18       0xb0 hal/Drivers/STM32G4xx_HAL_Driver/Src/stm32g4xx_hal_rcc_ex.o
 .debug_aranges
                0x0000000000000cc8       0x58 hal/Drivers/STM32G4xx_HAL_Driver/Src/stm32g4xx_hal_gpio.o
 .debug_aranges
                0x0000000000000d20      0x118 hal/Drivers/STM32G4xx_HAL_Driver/Src/stm32g4xx_hal_cortex.o
 .debug_aranges
                0x0000000000000e38       0x20 /usr/lib/gcc/arm-none-eabi/9.2.1/thumb/v7e-m+fp/hard/libgcc.a(_aeabi_uldivmod.o)
 .debug_aranges
                0x0000000000000e58       0x20 /usr/lib/gcc/arm-none-eabi/9.2.1/thumb/v7e-m+fp/hard/libgcc.a(_udivmoddi4.o)
 .debug_aranges
                0x0000000000000e78       0x20 /usr/lib/gcc/arm-none-eabi/9.2.1/thumb/v7e-m+fp/hard/libgcc.a(_dvmd_tls.o)
 .debug_aranges
                0x0000000000000e98       0x20 /usr/lib/gcc/arm-none-eabi/9.2.1/../../../arm-none-eabi/lib/thumb/v7e-m+fp/hard/libc_nano.a(lib_a-assert.o)
 .debug_aranges
                0x0000000000000eb8       0x20 /usr/lib/gcc/arm-none-eabi/9.2.1/../../../arm-none-eabi/lib/thumb/v7e-m+fp/hard/libc_nano.a(lib_a-fprintf.o)
 .debug_aranges
                0x0000000000000ed8       0x20 /usr/lib/gcc/arm-none-eabi/9.2.1/../../../arm-none-eabi/lib/thumb/v7e-m+fp/hard/libc_nano.a(lib_a-memcmp.o)
 .debug_aranges
                0x0000000000000ef8       0x20 /usr/lib/gcc/arm-none-eabi/9.2.1/../../../arm-none-eabi/lib/thumb/v7e-m+fp/hard/libc_nano.a(lib_a-memcpy.o)
 .debug_aranges
                0x0000000000000f18       0x20 /usr/lib/gcc/arm-none-eabi/9.2.1/../../../arm-none-eabi/lib/thumb/v7e-m+fp/hard/libc_nano.a(lib_a-nano-freer.o)
 .debug_aranges
                0x0000000000000f38       0x20 /usr/lib/gcc/arm-none-eabi/9.2.1/../../../arm-none-eabi/lib/thumb/v7e-m+fp/hard/libc_nano.a(lib_a-nano-mallocr.o)
 .debug_aranges
                0x0000000000000f58       0x20 /usr/lib/gcc/arm-none-eabi/9.2.1/../../../arm-none-eabi/lib/thumb/v7e-m+fp/hard/libc_nano.a(lib_a-nano-vfprintf.o)
 .debug_aranges
                0x0000000000000f78       0x20 /usr/lib/gcc/arm-none-eabi/9.2.1/../../../arm-none-eabi/lib/thumb/v7e-m+fp/hard/libc_nano.a(lib_a-nano-vfprintf_i.o)
 .debug_aranges
                0x0000000000000f98       0x20 /usr/lib/gcc/arm-none-eabi/9.2.1/../../../arm-none-eabi/lib/thumb/v7e-m+fp/hard/libc_nano.a(lib_a-printf.o)
 .debug_aranges
                0x0000000000000fb8       0x20 /usr/lib/gcc/arm-none-eabi/9.2.1/../../../arm-none-eabi/lib/thumb/v7e-m+fp/hard/libc_nano.a(lib_a-sbrkr.o)
 .debug_aranges
                0x0000000000000fd8       0x20 /usr/lib/gcc/arm-none-eabi/9.2.1/../../../arm-none-eabi/lib/thumb/v7e-m+fp/hard/libc_nano.a(lib_a-wbuf.o)
 .debug_aranges
                0x0000000000000ff8       0x20 /usr/lib/gcc/arm-none-eabi/9.2.1/../../../arm-none-eabi/lib/thumb/v7e-m+fp/hard/libc_nano.a(lib_a-wsetup.o)
 .debug_aranges
                0x0000000000001018       0x20 /usr/lib/gcc/arm-none-eabi/9.2.1/../../../arm-none-eabi/lib/thumb/v7e-m+fp/hard/libc_nano.a(lib_a-abort.o)
 .debug_aranges
                0x0000000000001038       0x20 /usr/lib/gcc/arm-none-eabi/9.2.1/../../../arm-none-eabi/lib/thumb/v7e-m+fp/hard/libc_nano.a(lib_a-fflush.o)
 .debug_aranges
                0x0000000000001058       0x20 /usr/lib/gcc/arm-none-eabi/9.2.1/../../../arm-none-eabi/lib/thumb/v7e-m+fp/hard/libc_nano.a(lib_a-findfp.o)
 .debug_aranges
                0x0000000000001078       0x20 /usr/lib/gcc/arm-none-eabi/9.2.1/../../../arm-none-eabi/lib/thumb/v7e-m+fp/hard/libc_nano.a(lib_a-fvwrite.o)
 .debug_aranges
                0x0000000000001098       0x20 /usr/lib/gcc/arm-none-eabi/9.2.1/../../../arm-none-eabi/lib/thumb/v7e-m+fp/hard/libc_nano.a(lib_a-fwalk.o)
 .debug_aranges
                0x00000000000010b8       0x20 /usr/lib/gcc/arm-none-eabi/9.2.1/../../../arm-none-eabi/lib/thumb/v7e-m+fp/hard/libc_nano.a(lib_a-makebuf.o)
 .debug_aranges
                0x00000000000010d8       0x20 /usr/lib/gcc/arm-none-eabi/9.2.1/../../../arm-none-eabi/lib/thumb/v7e-m+fp/hard/libc_nano.a(lib_a-memchr.o)
 .debug_aranges
                0x00000000000010f8       0x20 /usr/lib/gcc/arm-none-eabi/9.2.1/../../../arm-none-eabi/lib/thumb/v7e-m+fp/hard/libc_nano.a(lib_a-memmove.o)
 .debug_aranges
                0x0000000000001118       0x20 /usr/lib/gcc/arm-none-eabi/9.2.1/../../../arm-none-eabi/lib/thumb/v7e-m+fp/hard/libc_nano.a(lib_a-mlock.o)
 .debug_aranges
                0x0000000000001138       0x20 /usr/lib/gcc/arm-none-eabi/9.2.1/../../../arm-none-eabi/lib/thumb/v7e-m+fp/hard/libc_nano.a(lib_a-nano-reallocr.o)
 .debug_aranges
                0x0000000000001158       0x20 /usr/lib/gcc/arm-none-eabi/9.2.1/../../../arm-none-eabi/lib/thumb/v7e-m+fp/hard/libc_nano.a(lib_a-reent.o)
 .debug_aranges
                0x0000000000001178       0x20 /usr/lib/gcc/arm-none-eabi/9.2.1/../../../arm-none-eabi/lib/thumb/v7e-m+fp/hard/libc_nano.a(lib_a-signal.o)
 .debug_aranges
                0x0000000000001198       0x20 /usr/lib/gcc/arm-none-eabi/9.2.1/../../../arm-none-eabi/lib/thumb/v7e-m+fp/hard/libc_nano.a(lib_a-signalr.o)
 .debug_aranges
                0x00000000000011b8       0x20 /usr/lib/gcc/arm-none-eabi/9.2.1/../../../arm-none-eabi/lib/thumb/v7e-m+fp/hard/libc_nano.a(lib_a-stdio.o)
 .debug_aranges
                0x00000000000011d8       0x20 /usr/lib/gcc/arm-none-eabi/9.2.1/../../../arm-none-eabi/lib/thumb/v7e-m+fp/hard/libc_nano.a(lib_a-writer.o)
 .debug_aranges
                0x00000000000011f8       0x20 /usr/lib/gcc/arm-none-eabi/9.2.1/../../../arm-none-eabi/lib/thumb/v7e-m+fp/hard/libc_nano.a(lib_a-closer.o)
 .debug_aranges
                0x0000000000001218       0x20 /usr/lib/gcc/arm-none-eabi/9.2.1/../../../arm-none-eabi/lib/thumb/v7e-m+fp/hard/libc_nano.a(lib_a-fstatr.o)
 .debug_aranges
                0x0000000000001238       0x20 /usr/lib/gcc/arm-none-eabi/9.2.1/../../../arm-none-eabi/lib/thumb/v7e-m+fp/hard/libc_nano.a(lib_a-isattyr.o)
 .debug_aranges
                0x0000000000001258       0x20 /usr/lib/gcc/arm-none-eabi/9.2.1/../../../arm-none-eabi/lib/thumb/v7e-m+fp/hard/libc_nano.a(lib_a-lseekr.o)
 .debug_aranges
                0x0000000000001278       0x20 /usr/lib/gcc/arm-none-eabi/9.2.1/../../../arm-none-eabi/lib/thumb/v7e-m+fp/hard/libc_nano.a(lib_a-nano-msizer.o)
 .debug_aranges
                0x0000000000001298       0x20 /usr/lib/gcc/arm-none-eabi/9.2.1/../../../arm-none-eabi/lib/thumb/v7e-m+fp/hard/libc_nano.a(lib_a-readr.o)

.debug_line     0x0000000000000000     0xeef6
 .debug_line    0x0000000000000000       0xe3 /usr/lib/gcc/arm-none-eabi/9.2.1/../../../arm-none-eabi/lib/thumb/v7e-m+fp/hard/libc_nano.a(lib_a-impure.o)
 .debug_line    0x00000000000000e3      0x10d /usr/lib/gcc/arm-none-eabi/9.2.1/../../../arm-none-eabi/lib/thumb/v7e-m+fp/hard/libc_nano.a(lib_a-init.o)
 .debug_line    0x00000000000001f0      0x26b /usr/lib/gcc/arm-none-eabi/9.2.1/../../../arm-none-eabi/lib/thumb/v7e-m+fp/hard/libc_nano.a(lib_a-memset.o)
 .debug_line    0x000000000000045b       0x6e /usr/lib/gcc/arm-none-eabi/9.2.1/../../../arm-none-eabi/lib/thumb/v7e-m+fp/hard/libnosys.a(_exit.o)
 .debug_line    0x00000000000004c9      0x3af /mnt/d/Marcelo/bitbucket/mcuboot/mcuboot/boot/bootutil/src/bootutil_misc.o
 .debug_line    0x0000000000000878      0x6b9 /mnt/d/Marcelo/bitbucket/mcuboot/mcuboot/boot/bootutil/src/bootutil_public.o
 .debug_line    0x0000000000000f31       0xde /mnt/d/Marcelo/bitbucket/mcuboot/mcuboot/boot/bootutil/src/fault_injection_hardening.o
 .debug_line    0x000000000000100f      0x393 /mnt/d/Marcelo/bitbucket/mcuboot/mcuboot/boot/bootutil/src/image_ec256.o
 .debug_line    0x00000000000013a2      0x500 /mnt/d/Marcelo/bitbucket/mcuboot/mcuboot/boot/bootutil/src/image_validate.o
 .debug_line    0x00000000000018a2      0xda3 /mnt/d/Marcelo/bitbucket/mcuboot/mcuboot/boot/bootutil/src/loader.o
 .debug_line    0x0000000000002645      0x3fc /mnt/d/Marcelo/bitbucket/mcuboot/mcuboot/boot/bootutil/src/swap_misc.o
 .debug_line    0x0000000000002a41      0x827 /mnt/d/Marcelo/bitbucket/mcuboot/mcuboot/boot/bootutil/src/swap_scratch.o
 .debug_line    0x0000000000003268      0x2ff /mnt/d/Marcelo/bitbucket/mcuboot/mcuboot/boot/bootutil/src/tlv.o
 .debug_line    0x0000000000003567      0x16b mcuboot_main.o
 .debug_line    0x00000000000036d2      0x2d8 hal/Core/Src/main.o
 .debug_line    0x00000000000039aa      0x22b hal/Core/Src/stm32g4xx_it.o
 .debug_line    0x0000000000003bd5      0x209 hal/Core/Src/stm32g4xx_hal_msp.o
 .debug_line    0x0000000000003dde      0x1ff hal/Core/Src/system_stm32g4xx.o
 .debug_line    0x0000000000003fdd       0x7b hal/startup_stm32g431xx.o
 .debug_line    0x0000000000004058      0x73b hal/Drivers/STM32G4xx_HAL_Driver/Src/stm32g4xx_hal_pwr_ex.o
 .debug_line    0x0000000000004793     0x1bd7 hal/Drivers/STM32G4xx_HAL_Driver/Src/stm32g4xx_hal_uart.o
 .debug_line    0x000000000000636a      0x772 hal/Drivers/STM32G4xx_HAL_Driver/Src/stm32g4xx_hal_uart_ex.o
 .debug_line    0x0000000000006adc      0x576 hal/Drivers/STM32G4xx_HAL_Driver/Src/stm32g4xx_hal.o
 .debug_line    0x0000000000007052      0x9b4 hal/Drivers/STM32G4xx_HAL_Driver/Src/stm32g4xx_hal_rcc.o
 .debug_line    0x0000000000007a06      0xb90 hal/Drivers/STM32G4xx_HAL_Driver/Src/stm32g4xx_hal_rcc_ex.o
 .debug_line    0x0000000000008596      0x5db hal/Drivers/STM32G4xx_HAL_Driver/Src/stm32g4xx_hal_gpio.o
 .debug_line    0x0000000000008b71      0x752 hal/Drivers/STM32G4xx_HAL_Driver/Src/stm32g4xx_hal_cortex.o
 .debug_line    0x00000000000092c3       0x60 /usr/lib/gcc/arm-none-eabi/9.2.1/thumb/v7e-m+fp/hard/libgcc.a(_aeabi_uldivmod.o)
 .debug_line    0x0000000000009323      0x61a /usr/lib/gcc/arm-none-eabi/9.2.1/thumb/v7e-m+fp/hard/libgcc.a(_udivmoddi4.o)
 .debug_line    0x000000000000993d       0x60 /usr/lib/gcc/arm-none-eabi/9.2.1/thumb/v7e-m+fp/hard/libgcc.a(_dvmd_tls.o)
 .debug_line    0x000000000000999d      0x18d /usr/lib/gcc/arm-none-eabi/9.2.1/../../../arm-none-eabi/lib/thumb/v7e-m+fp/hard/libc_nano.a(lib_a-assert.o)
 .debug_line    0x0000000000009b2a      0x19a /usr/lib/gcc/arm-none-eabi/9.2.1/../../../arm-none-eabi/lib/thumb/v7e-m+fp/hard/libc_nano.a(lib_a-fprintf.o)
 .debug_line    0x0000000000009cc4      0x1d4 /usr/lib/gcc/arm-none-eabi/9.2.1/../../../arm-none-eabi/lib/thumb/v7e-m+fp/hard/libc_nano.a(lib_a-memcmp.o)
 .debug_line    0x0000000000009e98       0xbe /usr/lib/gcc/arm-none-eabi/9.2.1/../../../arm-none-eabi/lib/thumb/v7e-m+fp/hard/libc_nano.a(lib_a-memcpy.o)
 .debug_line    0x0000000000009f56      0x2af /usr/lib/gcc/arm-none-eabi/9.2.1/../../../arm-none-eabi/lib/thumb/v7e-m+fp/hard/libc_nano.a(lib_a-nano-freer.o)
 .debug_line    0x000000000000a205      0x2f2 /usr/lib/gcc/arm-none-eabi/9.2.1/../../../arm-none-eabi/lib/thumb/v7e-m+fp/hard/libc_nano.a(lib_a-nano-mallocr.o)
 .debug_line    0x000000000000a4f7      0x726 /usr/lib/gcc/arm-none-eabi/9.2.1/../../../arm-none-eabi/lib/thumb/v7e-m+fp/hard/libc_nano.a(lib_a-nano-vfprintf.o)
 .debug_line    0x000000000000ac1d      0x790 /usr/lib/gcc/arm-none-eabi/9.2.1/../../../arm-none-eabi/lib/thumb/v7e-m+fp/hard/libc_nano.a(lib_a-nano-vfprintf_i.o)
 .debug_line    0x000000000000b3ad      0x1fc /usr/lib/gcc/arm-none-eabi/9.2.1/../../../arm-none-eabi/lib/thumb/v7e-m+fp/hard/libc_nano.a(lib_a-printf.o)
 .debug_line    0x000000000000b5a9      0x182 /usr/lib/gcc/arm-none-eabi/9.2.1/../../../arm-none-eabi/lib/thumb/v7e-m+fp/hard/libc_nano.a(lib_a-sbrkr.o)
 .debug_line    0x000000000000b72b      0x27c /usr/lib/gcc/arm-none-eabi/9.2.1/../../../arm-none-eabi/lib/thumb/v7e-m+fp/hard/libc_nano.a(lib_a-wbuf.o)
 .debug_line    0x000000000000b9a7      0x311 /usr/lib/gcc/arm-none-eabi/9.2.1/../../../arm-none-eabi/lib/thumb/v7e-m+fp/hard/libc_nano.a(lib_a-wsetup.o)
 .debug_line    0x000000000000bcb8      0x15f /usr/lib/gcc/arm-none-eabi/9.2.1/../../../arm-none-eabi/lib/thumb/v7e-m+fp/hard/libc_nano.a(lib_a-abort.o)
 .debug_line    0x000000000000be17      0x418 /usr/lib/gcc/arm-none-eabi/9.2.1/../../../arm-none-eabi/lib/thumb/v7e-m+fp/hard/libc_nano.a(lib_a-fflush.o)
 .debug_line    0x000000000000c22f      0x561 /usr/lib/gcc/arm-none-eabi/9.2.1/../../../arm-none-eabi/lib/thumb/v7e-m+fp/hard/libc_nano.a(lib_a-findfp.o)
 .debug_line    0x000000000000c790      0x5e8 /usr/lib/gcc/arm-none-eabi/9.2.1/../../../arm-none-eabi/lib/thumb/v7e-m+fp/hard/libc_nano.a(lib_a-fvwrite.o)
 .debug_line    0x000000000000cd78      0x289 /usr/lib/gcc/arm-none-eabi/9.2.1/../../../arm-none-eabi/lib/thumb/v7e-m+fp/hard/libc_nano.a(lib_a-fwalk.o)
 .debug_line    0x000000000000d001      0x36f /usr/lib/gcc/arm-none-eabi/9.2.1/../../../arm-none-eabi/lib/thumb/v7e-m+fp/hard/libc_nano.a(lib_a-makebuf.o)
 .debug_line    0x000000000000d370       0xa4 /usr/lib/gcc/arm-none-eabi/9.2.1/../../../arm-none-eabi/lib/thumb/v7e-m+fp/hard/libc_nano.a(lib_a-memchr.o)
 .debug_line    0x000000000000d414      0x287 /usr/lib/gcc/arm-none-eabi/9.2.1/../../../arm-none-eabi/lib/thumb/v7e-m+fp/hard/libc_nano.a(lib_a-memmove.o)
 .debug_line    0x000000000000d69b      0x13d /usr/lib/gcc/arm-none-eabi/9.2.1/../../../arm-none-eabi/lib/thumb/v7e-m+fp/hard/libc_nano.a(lib_a-mlock.o)
 .debug_line    0x000000000000d7d8      0x1c5 /usr/lib/gcc/arm-none-eabi/9.2.1/../../../arm-none-eabi/lib/thumb/v7e-m+fp/hard/libc_nano.a(lib_a-nano-reallocr.o)
 .debug_line    0x000000000000d99d      0x275 /usr/lib/gcc/arm-none-eabi/9.2.1/../../../arm-none-eabi/lib/thumb/v7e-m+fp/hard/libc_nano.a(lib_a-reent.o)
 .debug_line    0x000000000000dc12      0x3cc /usr/lib/gcc/arm-none-eabi/9.2.1/../../../arm-none-eabi/lib/thumb/v7e-m+fp/hard/libc_nano.a(lib_a-signal.o)
 .debug_line    0x000000000000dfde      0x1a4 /usr/lib/gcc/arm-none-eabi/9.2.1/../../../arm-none-eabi/lib/thumb/v7e-m+fp/hard/libc_nano.a(lib_a-signalr.o)
 .debug_line    0x000000000000e182      0x25f /usr/lib/gcc/arm-none-eabi/9.2.1/../../../arm-none-eabi/lib/thumb/v7e-m+fp/hard/libc_nano.a(lib_a-stdio.o)
 .debug_line    0x000000000000e3e1      0x188 /usr/lib/gcc/arm-none-eabi/9.2.1/../../../arm-none-eabi/lib/thumb/v7e-m+fp/hard/libc_nano.a(lib_a-writer.o)
 .debug_line    0x000000000000e569      0x182 /usr/lib/gcc/arm-none-eabi/9.2.1/../../../arm-none-eabi/lib/thumb/v7e-m+fp/hard/libc_nano.a(lib_a-closer.o)
 .debug_line    0x000000000000e6eb      0x213 /usr/lib/gcc/arm-none-eabi/9.2.1/../../../arm-none-eabi/lib/thumb/v7e-m+fp/hard/libc_nano.a(lib_a-fstatr.o)
 .debug_line    0x000000000000e8fe      0x183 /usr/lib/gcc/arm-none-eabi/9.2.1/../../../arm-none-eabi/lib/thumb/v7e-m+fp/hard/libc_nano.a(lib_a-isattyr.o)
 .debug_line    0x000000000000ea81      0x188 /usr/lib/gcc/arm-none-eabi/9.2.1/../../../arm-none-eabi/lib/thumb/v7e-m+fp/hard/libc_nano.a(lib_a-lseekr.o)
 .debug_line    0x000000000000ec09      0x166 /usr/lib/gcc/arm-none-eabi/9.2.1/../../../arm-none-eabi/lib/thumb/v7e-m+fp/hard/libc_nano.a(lib_a-nano-msizer.o)
 .debug_line    0x000000000000ed6f      0x187 /usr/lib/gcc/arm-none-eabi/9.2.1/../../../arm-none-eabi/lib/thumb/v7e-m+fp/hard/libc_nano.a(lib_a-readr.o)

.debug_str      0x0000000000000000     0x7596
 .debug_str     0x0000000000000000      0x50c /usr/lib/gcc/arm-none-eabi/9.2.1/../../../arm-none-eabi/lib/thumb/v7e-m+fp/hard/libc_nano.a(lib_a-impure.o)
                                        0x5e2 (size before relaxing)
 .debug_str     0x000000000000050c       0xf0 /usr/lib/gcc/arm-none-eabi/9.2.1/../../../arm-none-eabi/lib/thumb/v7e-m+fp/hard/libc_nano.a(lib_a-init.o)
                                        0x229 (size before relaxing)
 .debug_str     0x00000000000005fc      0x31f /usr/lib/gcc/arm-none-eabi/9.2.1/../../../arm-none-eabi/lib/thumb/v7e-m+fp/hard/libc_nano.a(lib_a-memset.o)
                                        0x90f (size before relaxing)
 .debug_str     0x000000000000091b      0x10f /usr/lib/gcc/arm-none-eabi/9.2.1/../../../arm-none-eabi/lib/thumb/v7e-m+fp/hard/libnosys.a(_exit.o)
                                        0x19f (size before relaxing)
 .debug_str     0x0000000000000a2a      0x322 /mnt/d/Marcelo/bitbucket/mcuboot/mcuboot/boot/bootutil/src/bootutil_misc.o
                                        0x7f9 (size before relaxing)
 .debug_str     0x0000000000000d4c      0x2e8 /mnt/d/Marcelo/bitbucket/mcuboot/mcuboot/boot/bootutil/src/bootutil_public.o
                                        0xa18 (size before relaxing)
 .debug_str     0x0000000000001034       0x57 /mnt/d/Marcelo/bitbucket/mcuboot/mcuboot/boot/bootutil/src/fault_injection_hardening.o
                                        0x17b (size before relaxing)
 .debug_str     0x000000000000108b      0x412 /mnt/d/Marcelo/bitbucket/mcuboot/mcuboot/boot/bootutil/src/image_ec256.o
                                        0xa19 (size before relaxing)
 .debug_str     0x000000000000149d      0x2ef /mnt/d/Marcelo/bitbucket/mcuboot/mcuboot/boot/bootutil/src/image_validate.o
                                        0x994 (size before relaxing)
 .debug_str     0x000000000000178c      0x4f4 /mnt/d/Marcelo/bitbucket/mcuboot/mcuboot/boot/bootutil/src/loader.o
                                        0xcc2 (size before relaxing)
 .debug_str     0x0000000000001c80      0x139 /mnt/d/Marcelo/bitbucket/mcuboot/mcuboot/boot/bootutil/src/swap_misc.o
                                        0x947 (size before relaxing)
 .debug_str     0x0000000000001db9      0x2ed /mnt/d/Marcelo/bitbucket/mcuboot/mcuboot/boot/bootutil/src/swap_scratch.o
                                        0xbc5 (size before relaxing)
 .debug_str     0x00000000000020a6       0x8e /mnt/d/Marcelo/bitbucket/mcuboot/mcuboot/boot/bootutil/src/tlv.o
                                        0x7bd (size before relaxing)
 .debug_str     0x0000000000002134       0x2a mcuboot_main.o
                                        0x6f9 (size before relaxing)
 .debug_str     0x000000000000215e      0xaec hal/Core/Src/main.o
                                        0xd26 (size before relaxing)
 .debug_str     0x0000000000002c4a       0xac hal/Core/Src/stm32g4xx_it.o
                                        0x45c (size before relaxing)
 .debug_str     0x0000000000002cf6       0xbf hal/Core/Src/stm32g4xx_hal_msp.o
                                        0xaae (size before relaxing)
 .debug_str     0x0000000000002db5       0xb0 hal/Core/Src/system_stm32g4xx.o
                                        0x5b2 (size before relaxing)
 .debug_str     0x0000000000002e65       0x26 hal/startup_stm32g431xx.o
                                         0x68 (size before relaxing)
 .debug_str     0x0000000000002e8b      0x572 hal/Drivers/STM32G4xx_HAL_Driver/Src/stm32g4xx_hal_pwr_ex.o
                                        0x9d5 (size before relaxing)
 .debug_str     0x00000000000033fd      0x826 hal/Drivers/STM32G4xx_HAL_Driver/Src/stm32g4xx_hal_uart.o
                                       0x1291 (size before relaxing)
 .debug_str     0x0000000000003c23      0x2e7 hal/Drivers/STM32G4xx_HAL_Driver/Src/stm32g4xx_hal_uart_ex.o
                                        0xc12 (size before relaxing)
 .debug_str     0x0000000000003f0a      0x877 hal/Drivers/STM32G4xx_HAL_Driver/Src/stm32g4xx_hal.o
                                        0xded (size before relaxing)
 .debug_str     0x0000000000004781      0x249 hal/Drivers/STM32G4xx_HAL_Driver/Src/stm32g4xx_hal_rcc.o
                                        0x9c2 (size before relaxing)
 .debug_str     0x00000000000049ca      0x35d hal/Drivers/STM32G4xx_HAL_Driver/Src/stm32g4xx_hal_rcc_ex.o
                                        0xb9c (size before relaxing)
 .debug_str     0x0000000000004d27      0x125 hal/Drivers/STM32G4xx_HAL_Driver/Src/stm32g4xx_hal_gpio.o
                                        0x755 (size before relaxing)
 .debug_str     0x0000000000004e4c      0x48a hal/Drivers/STM32G4xx_HAL_Driver/Src/stm32g4xx_hal_cortex.o
                                        0xd8f (size before relaxing)
 .debug_str     0x00000000000052d6       0x97 /usr/lib/gcc/arm-none-eabi/9.2.1/thumb/v7e-m+fp/hard/libgcc.a(_aeabi_uldivmod.o)
                                         0xa3 (size before relaxing)
 .debug_str     0x000000000000536d     0x10e1 /usr/lib/gcc/arm-none-eabi/9.2.1/thumb/v7e-m+fp/hard/libgcc.a(_udivmoddi4.o)
                                       0x11e6 (size before relaxing)
 .debug_str     0x000000000000644e       0x30 /usr/lib/gcc/arm-none-eabi/9.2.1/thumb/v7e-m+fp/hard/libgcc.a(_dvmd_tls.o)
                                         0xa7 (size before relaxing)
 .debug_str     0x000000000000647e       0xcc /usr/lib/gcc/arm-none-eabi/9.2.1/../../../arm-none-eabi/lib/thumb/v7e-m+fp/hard/libc_nano.a(lib_a-assert.o)
                                        0x622 (size before relaxing)
 .debug_str     0x000000000000654a       0xca /usr/lib/gcc/arm-none-eabi/9.2.1/../../../arm-none-eabi/lib/thumb/v7e-m+fp/hard/libc_nano.a(lib_a-fprintf.o)
                                        0x621 (size before relaxing)
 .debug_str     0x0000000000006614       0x3b /usr/lib/gcc/arm-none-eabi/9.2.1/../../../arm-none-eabi/lib/thumb/v7e-m+fp/hard/libc_nano.a(lib_a-memcmp.o)
                                        0x5e6 (size before relaxing)
 .debug_str     0x000000000000664f       0xaa /usr/lib/gcc/arm-none-eabi/9.2.1/../../../arm-none-eabi/lib/thumb/v7e-m+fp/hard/libc_nano.a(lib_a-memcpy.o)
                                         0xb6 (size before relaxing)
 .debug_str     0x00000000000066f9      0x13f /usr/lib/gcc/arm-none-eabi/9.2.1/../../../arm-none-eabi/lib/thumb/v7e-m+fp/hard/libc_nano.a(lib_a-nano-freer.o)
                                        0x712 (size before relaxing)
 .debug_str     0x0000000000006838       0x3c /usr/lib/gcc/arm-none-eabi/9.2.1/../../../arm-none-eabi/lib/thumb/v7e-m+fp/hard/libc_nano.a(lib_a-nano-mallocr.o)
                                        0x729 (size before relaxing)
 .debug_str     0x0000000000006874      0x2d1 /usr/lib/gcc/arm-none-eabi/9.2.1/../../../arm-none-eabi/lib/thumb/v7e-m+fp/hard/libc_nano.a(lib_a-nano-vfprintf.o)
                                        0xc2e (size before relaxing)
 .debug_str     0x0000000000006b45       0x94 /usr/lib/gcc/arm-none-eabi/9.2.1/../../../arm-none-eabi/lib/thumb/v7e-m+fp/hard/libc_nano.a(lib_a-nano-vfprintf_i.o)
                                        0xbac (size before relaxing)
 .debug_str     0x0000000000006bd9       0x3d /usr/lib/gcc/arm-none-eabi/9.2.1/../../../arm-none-eabi/lib/thumb/v7e-m+fp/hard/libc_nano.a(lib_a-printf.o)
                                        0x75c (size before relaxing)
 .debug_str     0x0000000000006c16       0x47 /usr/lib/gcc/arm-none-eabi/9.2.1/../../../arm-none-eabi/lib/thumb/v7e-m+fp/hard/libc_nano.a(lib_a-sbrkr.o)
                                        0x625 (size before relaxing)
 .debug_str     0x0000000000006c5d       0x43 /usr/lib/gcc/arm-none-eabi/9.2.1/../../../arm-none-eabi/lib/thumb/v7e-m+fp/hard/libc_nano.a(lib_a-wbuf.o)
                                        0x76b (size before relaxing)
 .debug_str     0x0000000000006ca0       0x40 /usr/lib/gcc/arm-none-eabi/9.2.1/../../../arm-none-eabi/lib/thumb/v7e-m+fp/hard/libc_nano.a(lib_a-wsetup.o)
                                        0x766 (size before relaxing)
 .debug_str     0x0000000000006ce0       0x39 /usr/lib/gcc/arm-none-eabi/9.2.1/../../../arm-none-eabi/lib/thumb/v7e-m+fp/hard/libc_nano.a(lib_a-abort.o)
                                        0x620 (size before relaxing)
 .debug_str     0x0000000000006d19       0x63 /usr/lib/gcc/arm-none-eabi/9.2.1/../../../arm-none-eabi/lib/thumb/v7e-m+fp/hard/libc_nano.a(lib_a-fflush.o)
                                        0x794 (size before relaxing)
 .debug_str     0x0000000000006d7c      0x165 /usr/lib/gcc/arm-none-eabi/9.2.1/../../../arm-none-eabi/lib/thumb/v7e-m+fp/hard/libc_nano.a(lib_a-findfp.o)
                                        0x8a4 (size before relaxing)
 .debug_str     0x0000000000006ee1       0x6c /usr/lib/gcc/arm-none-eabi/9.2.1/../../../arm-none-eabi/lib/thumb/v7e-m+fp/hard/libc_nano.a(lib_a-fvwrite.o)
                                        0x7e5 (size before relaxing)
 .debug_str     0x0000000000006f4d       0x41 /usr/lib/gcc/arm-none-eabi/9.2.1/../../../arm-none-eabi/lib/thumb/v7e-m+fp/hard/libc_nano.a(lib_a-fwalk.o)
                                        0x758 (size before relaxing)
 .debug_str     0x0000000000006f8e      0x16c /usr/lib/gcc/arm-none-eabi/9.2.1/../../../arm-none-eabi/lib/thumb/v7e-m+fp/hard/libc_nano.a(lib_a-makebuf.o)
                                        0x8d9 (size before relaxing)
 .debug_str     0x00000000000070fa       0x3c /usr/lib/gcc/arm-none-eabi/9.2.1/../../../arm-none-eabi/lib/thumb/v7e-m+fp/hard/libc_nano.a(lib_a-memchr.o)
                                         0xaf (size before relaxing)
 .debug_str     0x0000000000007136       0x66 /usr/lib/gcc/arm-none-eabi/9.2.1/../../../arm-none-eabi/lib/thumb/v7e-m+fp/hard/libc_nano.a(lib_a-memmove.o)
                                        0x92e (size before relaxing)
 .debug_str     0x000000000000719c       0x4c /usr/lib/gcc/arm-none-eabi/9.2.1/../../../arm-none-eabi/lib/thumb/v7e-m+fp/hard/libc_nano.a(lib_a-mlock.o)
                                        0x60e (size before relaxing)
 .debug_str     0x00000000000071e8       0x23 /usr/lib/gcc/arm-none-eabi/9.2.1/../../../arm-none-eabi/lib/thumb/v7e-m+fp/hard/libc_nano.a(lib_a-nano-reallocr.o)
                                        0x70f (size before relaxing)
 .debug_str     0x000000000000720b       0x5e /usr/lib/gcc/arm-none-eabi/9.2.1/../../../arm-none-eabi/lib/thumb/v7e-m+fp/hard/libc_nano.a(lib_a-reent.o)
                                        0x61e (size before relaxing)
 .debug_str     0x0000000000007269       0xfc /usr/lib/gcc/arm-none-eabi/9.2.1/../../../arm-none-eabi/lib/thumb/v7e-m+fp/hard/libc_nano.a(lib_a-signal.o)
                                        0x685 (size before relaxing)
 .debug_str     0x0000000000007365       0x42 /usr/lib/gcc/arm-none-eabi/9.2.1/../../../arm-none-eabi/lib/thumb/v7e-m+fp/hard/libc_nano.a(lib_a-signalr.o)
                                        0x62a (size before relaxing)
 .debug_str     0x00000000000073a7       0x92 /usr/lib/gcc/arm-none-eabi/9.2.1/../../../arm-none-eabi/lib/thumb/v7e-m+fp/hard/libc_nano.a(lib_a-stdio.o)
                                        0x7ac (size before relaxing)
 .debug_str     0x0000000000007439       0x33 /usr/lib/gcc/arm-none-eabi/9.2.1/../../../arm-none-eabi/lib/thumb/v7e-m+fp/hard/libc_nano.a(lib_a-writer.o)
                                        0x622 (size before relaxing)
 .debug_str     0x000000000000746c       0x33 /usr/lib/gcc/arm-none-eabi/9.2.1/../../../arm-none-eabi/lib/thumb/v7e-m+fp/hard/libc_nano.a(lib_a-closer.o)
                                        0x612 (size before relaxing)
 .debug_str     0x000000000000749f       0x40 /usr/lib/gcc/arm-none-eabi/9.2.1/../../../arm-none-eabi/lib/thumb/v7e-m+fp/hard/libc_nano.a(lib_a-fstatr.o)
                                        0x780 (size before relaxing)
 .debug_str     0x00000000000074df       0x3c /usr/lib/gcc/arm-none-eabi/9.2.1/../../../arm-none-eabi/lib/thumb/v7e-m+fp/hard/libc_nano.a(lib_a-isattyr.o)
                                        0x61c (size before relaxing)
 .debug_str     0x000000000000751b       0x3a /usr/lib/gcc/arm-none-eabi/9.2.1/../../../arm-none-eabi/lib/thumb/v7e-m+fp/hard/libc_nano.a(lib_a-lseekr.o)
                                        0x620 (size before relaxing)
 .debug_str     0x0000000000007555        0xf /usr/lib/gcc/arm-none-eabi/9.2.1/../../../arm-none-eabi/lib/thumb/v7e-m+fp/hard/libc_nano.a(lib_a-nano-msizer.o)
                                        0x6ed (size before relaxing)
 .debug_str     0x0000000000007564       0x32 /usr/lib/gcc/arm-none-eabi/9.2.1/../../../arm-none-eabi/lib/thumb/v7e-m+fp/hard/libc_nano.a(lib_a-readr.o)
                                        0x620 (size before relaxing)

.debug_loc      0x0000000000000000     0x5452
 .debug_loc     0x0000000000000000       0xba /usr/lib/gcc/arm-none-eabi/9.2.1/../../../arm-none-eabi/lib/thumb/v7e-m+fp/hard/libc_nano.a(lib_a-init.o)
 .debug_loc     0x00000000000000ba      0x231 /usr/lib/gcc/arm-none-eabi/9.2.1/../../../arm-none-eabi/lib/thumb/v7e-m+fp/hard/libc_nano.a(lib_a-memset.o)
 .debug_loc     0x00000000000002eb       0x15 /usr/lib/gcc/arm-none-eabi/9.2.1/../../../arm-none-eabi/lib/thumb/v7e-m+fp/hard/libnosys.a(_exit.o)
 .debug_loc     0x0000000000000300      0xfa2 /usr/lib/gcc/arm-none-eabi/9.2.1/thumb/v7e-m+fp/hard/libgcc.a(_udivmoddi4.o)
 .debug_loc     0x00000000000012a2      0x15c /usr/lib/gcc/arm-none-eabi/9.2.1/../../../arm-none-eabi/lib/thumb/v7e-m+fp/hard/libc_nano.a(lib_a-assert.o)
 .debug_loc     0x00000000000013fe       0xa6 /usr/lib/gcc/arm-none-eabi/9.2.1/../../../arm-none-eabi/lib/thumb/v7e-m+fp/hard/libc_nano.a(lib_a-fprintf.o)
 .debug_loc     0x00000000000014a4      0x196 /usr/lib/gcc/arm-none-eabi/9.2.1/../../../arm-none-eabi/lib/thumb/v7e-m+fp/hard/libc_nano.a(lib_a-memcmp.o)
 .debug_loc     0x000000000000163a      0x211 /usr/lib/gcc/arm-none-eabi/9.2.1/../../../arm-none-eabi/lib/thumb/v7e-m+fp/hard/libc_nano.a(lib_a-nano-freer.o)
 .debug_loc     0x000000000000184b      0x437 /usr/lib/gcc/arm-none-eabi/9.2.1/../../../arm-none-eabi/lib/thumb/v7e-m+fp/hard/libc_nano.a(lib_a-nano-mallocr.o)
 .debug_loc     0x0000000000001c82      0x7a3 /usr/lib/gcc/arm-none-eabi/9.2.1/../../../arm-none-eabi/lib/thumb/v7e-m+fp/hard/libc_nano.a(lib_a-nano-vfprintf.o)
 .debug_loc     0x0000000000002425      0x7ab /usr/lib/gcc/arm-none-eabi/9.2.1/../../../arm-none-eabi/lib/thumb/v7e-m+fp/hard/libc_nano.a(lib_a-nano-vfprintf_i.o)
 .debug_loc     0x0000000000002bd0       0x98 /usr/lib/gcc/arm-none-eabi/9.2.1/../../../arm-none-eabi/lib/thumb/v7e-m+fp/hard/libc_nano.a(lib_a-printf.o)
 .debug_loc     0x0000000000002c68       0x6c /usr/lib/gcc/arm-none-eabi/9.2.1/../../../arm-none-eabi/lib/thumb/v7e-m+fp/hard/libc_nano.a(lib_a-sbrkr.o)
 .debug_loc     0x0000000000002cd4      0x193 /usr/lib/gcc/arm-none-eabi/9.2.1/../../../arm-none-eabi/lib/thumb/v7e-m+fp/hard/libc_nano.a(lib_a-wbuf.o)
 .debug_loc     0x0000000000002e67       0xb7 /usr/lib/gcc/arm-none-eabi/9.2.1/../../../arm-none-eabi/lib/thumb/v7e-m+fp/hard/libc_nano.a(lib_a-wsetup.o)
 .debug_loc     0x0000000000002f1e      0x3f5 /usr/lib/gcc/arm-none-eabi/9.2.1/../../../arm-none-eabi/lib/thumb/v7e-m+fp/hard/libc_nano.a(lib_a-fflush.o)
 .debug_loc     0x0000000000003313      0x339 /usr/lib/gcc/arm-none-eabi/9.2.1/../../../arm-none-eabi/lib/thumb/v7e-m+fp/hard/libc_nano.a(lib_a-findfp.o)
 .debug_loc     0x000000000000364c      0x669 /usr/lib/gcc/arm-none-eabi/9.2.1/../../../arm-none-eabi/lib/thumb/v7e-m+fp/hard/libc_nano.a(lib_a-fvwrite.o)
 .debug_loc     0x0000000000003cb5      0x24f /usr/lib/gcc/arm-none-eabi/9.2.1/../../../arm-none-eabi/lib/thumb/v7e-m+fp/hard/libc_nano.a(lib_a-fwalk.o)
 .debug_loc     0x0000000000003f04      0x192 /usr/lib/gcc/arm-none-eabi/9.2.1/../../../arm-none-eabi/lib/thumb/v7e-m+fp/hard/libc_nano.a(lib_a-makebuf.o)
 .debug_loc     0x0000000000004096      0x2f1 /usr/lib/gcc/arm-none-eabi/9.2.1/../../../arm-none-eabi/lib/thumb/v7e-m+fp/hard/libc_nano.a(lib_a-memmove.o)
 .debug_loc     0x0000000000004387      0x133 /usr/lib/gcc/arm-none-eabi/9.2.1/../../../arm-none-eabi/lib/thumb/v7e-m+fp/hard/libc_nano.a(lib_a-nano-reallocr.o)
 .debug_loc     0x00000000000044ba      0x135 /usr/lib/gcc/arm-none-eabi/9.2.1/../../../arm-none-eabi/lib/thumb/v7e-m+fp/hard/libc_nano.a(lib_a-reent.o)
 .debug_loc     0x00000000000045ef      0x560 /usr/lib/gcc/arm-none-eabi/9.2.1/../../../arm-none-eabi/lib/thumb/v7e-m+fp/hard/libc_nano.a(lib_a-signal.o)
 .debug_loc     0x0000000000004b4f       0xd0 /usr/lib/gcc/arm-none-eabi/9.2.1/../../../arm-none-eabi/lib/thumb/v7e-m+fp/hard/libc_nano.a(lib_a-signalr.o)
 .debug_loc     0x0000000000004c1f      0x393 /usr/lib/gcc/arm-none-eabi/9.2.1/../../../arm-none-eabi/lib/thumb/v7e-m+fp/hard/libc_nano.a(lib_a-stdio.o)
 .debug_loc     0x0000000000004fb2       0xdd /usr/lib/gcc/arm-none-eabi/9.2.1/../../../arm-none-eabi/lib/thumb/v7e-m+fp/hard/libc_nano.a(lib_a-writer.o)
 .debug_loc     0x000000000000508f       0x6c /usr/lib/gcc/arm-none-eabi/9.2.1/../../../arm-none-eabi/lib/thumb/v7e-m+fp/hard/libc_nano.a(lib_a-closer.o)
 .debug_loc     0x00000000000050fb       0xab /usr/lib/gcc/arm-none-eabi/9.2.1/../../../arm-none-eabi/lib/thumb/v7e-m+fp/hard/libc_nano.a(lib_a-fstatr.o)
 .debug_loc     0x00000000000051a6       0x6c /usr/lib/gcc/arm-none-eabi/9.2.1/../../../arm-none-eabi/lib/thumb/v7e-m+fp/hard/libc_nano.a(lib_a-isattyr.o)
 .debug_loc     0x0000000000005212       0xdd /usr/lib/gcc/arm-none-eabi/9.2.1/../../../arm-none-eabi/lib/thumb/v7e-m+fp/hard/libc_nano.a(lib_a-lseekr.o)
 .debug_loc     0x00000000000052ef       0x86 /usr/lib/gcc/arm-none-eabi/9.2.1/../../../arm-none-eabi/lib/thumb/v7e-m+fp/hard/libc_nano.a(lib_a-nano-msizer.o)
 .debug_loc     0x0000000000005375       0xdd /usr/lib/gcc/arm-none-eabi/9.2.1/../../../arm-none-eabi/lib/thumb/v7e-m+fp/hard/libc_nano.a(lib_a-readr.o)

.debug_frame    0x0000000000000000     0x40c8
 .debug_frame   0x0000000000000000       0x2c /usr/lib/gcc/arm-none-eabi/9.2.1/../../../arm-none-eabi/lib/thumb/v7e-m+fp/hard/libc_nano.a(lib_a-init.o)
 .debug_frame   0x000000000000002c       0x38 /usr/lib/gcc/arm-none-eabi/9.2.1/../../../arm-none-eabi/lib/thumb/v7e-m+fp/hard/libc_nano.a(lib_a-memset.o)
 .debug_frame   0x0000000000000064       0x20 /usr/lib/gcc/arm-none-eabi/9.2.1/../../../arm-none-eabi/lib/thumb/v7e-m+fp/hard/libnosys.a(_exit.o)
 .debug_frame   0x0000000000000084      0x238 /mnt/d/Marcelo/bitbucket/mcuboot/mcuboot/boot/bootutil/src/bootutil_misc.o
 .debug_frame   0x00000000000002bc      0x394 /mnt/d/Marcelo/bitbucket/mcuboot/mcuboot/boot/bootutil/src/bootutil_public.o
 .debug_frame   0x0000000000000650       0xc8 /mnt/d/Marcelo/bitbucket/mcuboot/mcuboot/boot/bootutil/src/image_ec256.o
 .debug_frame   0x0000000000000718      0x120 /mnt/d/Marcelo/bitbucket/mcuboot/mcuboot/boot/bootutil/src/image_validate.o
 .debug_frame   0x0000000000000838      0x518 /mnt/d/Marcelo/bitbucket/mcuboot/mcuboot/boot/bootutil/src/loader.o
 .debug_frame   0x0000000000000d50      0x1b0 /mnt/d/Marcelo/bitbucket/mcuboot/mcuboot/boot/bootutil/src/swap_misc.o
 .debug_frame   0x0000000000000f00      0x24c /mnt/d/Marcelo/bitbucket/mcuboot/mcuboot/boot/bootutil/src/swap_scratch.o
 .debug_frame   0x000000000000114c       0x58 /mnt/d/Marcelo/bitbucket/mcuboot/mcuboot/boot/bootutil/src/tlv.o
 .debug_frame   0x00000000000011a4       0x5c mcuboot_main.o
 .debug_frame   0x0000000000001200       0xb0 hal/Core/Src/main.o
 .debug_frame   0x00000000000012b0      0x104 hal/Core/Src/stm32g4xx_it.o
 .debug_frame   0x00000000000013b4       0x7c hal/Core/Src/stm32g4xx_hal_msp.o
 .debug_frame   0x0000000000001430       0x58 hal/Core/Src/system_stm32g4xx.o
 .debug_frame   0x0000000000001488      0x4fc hal/Drivers/STM32G4xx_HAL_Driver/Src/stm32g4xx_hal_pwr_ex.o
 .debug_frame   0x0000000000001984      0xa7c hal/Drivers/STM32G4xx_HAL_Driver/Src/stm32g4xx_hal_uart.o
 .debug_frame   0x0000000000002400      0x29c hal/Drivers/STM32G4xx_HAL_Driver/Src/stm32g4xx_hal_uart_ex.o
 .debug_frame   0x000000000000269c      0x4a0 hal/Drivers/STM32G4xx_HAL_Driver/Src/stm32g4xx_hal.o
 .debug_frame   0x0000000000002b3c      0x23c hal/Drivers/STM32G4xx_HAL_Driver/Src/stm32g4xx_hal_rcc.o
 .debug_frame   0x0000000000002d78      0x2ac hal/Drivers/STM32G4xx_HAL_Driver/Src/stm32g4xx_hal_rcc_ex.o
 .debug_frame   0x0000000000003024      0x14c hal/Drivers/STM32G4xx_HAL_Driver/Src/stm32g4xx_hal_gpio.o
 .debug_frame   0x0000000000003170      0x498 hal/Drivers/STM32G4xx_HAL_Driver/Src/stm32g4xx_hal_cortex.o
 .debug_frame   0x0000000000003608       0x2c /usr/lib/gcc/arm-none-eabi/9.2.1/thumb/v7e-m+fp/hard/libgcc.a(_aeabi_uldivmod.o)
 .debug_frame   0x0000000000003634       0x34 /usr/lib/gcc/arm-none-eabi/9.2.1/thumb/v7e-m+fp/hard/libgcc.a(_udivmoddi4.o)
 .debug_frame   0x0000000000003668       0x40 /usr/lib/gcc/arm-none-eabi/9.2.1/../../../arm-none-eabi/lib/thumb/v7e-m+fp/hard/libc_nano.a(lib_a-assert.o)
 .debug_frame   0x00000000000036a8       0x70 /usr/lib/gcc/arm-none-eabi/9.2.1/../../../arm-none-eabi/lib/thumb/v7e-m+fp/hard/libc_nano.a(lib_a-fprintf.o)
 .debug_frame   0x0000000000003718       0x38 /usr/lib/gcc/arm-none-eabi/9.2.1/../../../arm-none-eabi/lib/thumb/v7e-m+fp/hard/libc_nano.a(lib_a-memcmp.o)
 .debug_frame   0x0000000000003750       0x58 /usr/lib/gcc/arm-none-eabi/9.2.1/../../../arm-none-eabi/lib/thumb/v7e-m+fp/hard/libc_nano.a(lib_a-nano-freer.o)
 .debug_frame   0x00000000000037a8       0x30 /usr/lib/gcc/arm-none-eabi/9.2.1/../../../arm-none-eabi/lib/thumb/v7e-m+fp/hard/libc_nano.a(lib_a-nano-mallocr.o)
 .debug_frame   0x00000000000037d8       0xbc /usr/lib/gcc/arm-none-eabi/9.2.1/../../../arm-none-eabi/lib/thumb/v7e-m+fp/hard/libc_nano.a(lib_a-nano-vfprintf.o)
 .debug_frame   0x0000000000003894       0x68 /usr/lib/gcc/arm-none-eabi/9.2.1/../../../arm-none-eabi/lib/thumb/v7e-m+fp/hard/libc_nano.a(lib_a-nano-vfprintf_i.o)
 .debug_frame   0x00000000000038fc       0x7c /usr/lib/gcc/arm-none-eabi/9.2.1/../../../arm-none-eabi/lib/thumb/v7e-m+fp/hard/libc_nano.a(lib_a-printf.o)
 .debug_frame   0x0000000000003978       0x2c /usr/lib/gcc/arm-none-eabi/9.2.1/../../../arm-none-eabi/lib/thumb/v7e-m+fp/hard/libc_nano.a(lib_a-sbrkr.o)
 .debug_frame   0x00000000000039a4       0x40 /usr/lib/gcc/arm-none-eabi/9.2.1/../../../arm-none-eabi/lib/thumb/v7e-m+fp/hard/libc_nano.a(lib_a-wbuf.o)
 .debug_frame   0x00000000000039e4       0x2c /usr/lib/gcc/arm-none-eabi/9.2.1/../../../arm-none-eabi/lib/thumb/v7e-m+fp/hard/libc_nano.a(lib_a-wsetup.o)
 .debug_frame   0x0000000000003a10       0x28 /usr/lib/gcc/arm-none-eabi/9.2.1/../../../arm-none-eabi/lib/thumb/v7e-m+fp/hard/libc_nano.a(lib_a-abort.o)
 .debug_frame   0x0000000000003a38       0x70 /usr/lib/gcc/arm-none-eabi/9.2.1/../../../arm-none-eabi/lib/thumb/v7e-m+fp/hard/libc_nano.a(lib_a-fflush.o)
 .debug_frame   0x0000000000003aa8      0x120 /usr/lib/gcc/arm-none-eabi/9.2.1/../../../arm-none-eabi/lib/thumb/v7e-m+fp/hard/libc_nano.a(lib_a-findfp.o)
 .debug_frame   0x0000000000003bc8       0x64 /usr/lib/gcc/arm-none-eabi/9.2.1/../../../arm-none-eabi/lib/thumb/v7e-m+fp/hard/libc_nano.a(lib_a-fvwrite.o)
 .debug_frame   0x0000000000003c2c       0x54 /usr/lib/gcc/arm-none-eabi/9.2.1/../../../arm-none-eabi/lib/thumb/v7e-m+fp/hard/libc_nano.a(lib_a-fwalk.o)
 .debug_frame   0x0000000000003c80       0x64 /usr/lib/gcc/arm-none-eabi/9.2.1/../../../arm-none-eabi/lib/thumb/v7e-m+fp/hard/libc_nano.a(lib_a-makebuf.o)
 .debug_frame   0x0000000000003ce4       0x40 /usr/lib/gcc/arm-none-eabi/9.2.1/../../../arm-none-eabi/lib/thumb/v7e-m+fp/hard/libc_nano.a(lib_a-memmove.o)
 .debug_frame   0x0000000000003d24       0x30 /usr/lib/gcc/arm-none-eabi/9.2.1/../../../arm-none-eabi/lib/thumb/v7e-m+fp/hard/libc_nano.a(lib_a-mlock.o)
 .debug_frame   0x0000000000003d54       0x38 /usr/lib/gcc/arm-none-eabi/9.2.1/../../../arm-none-eabi/lib/thumb/v7e-m+fp/hard/libc_nano.a(lib_a-nano-reallocr.o)
 .debug_frame   0x0000000000003d8c       0x6c /usr/lib/gcc/arm-none-eabi/9.2.1/../../../arm-none-eabi/lib/thumb/v7e-m+fp/hard/libc_nano.a(lib_a-reent.o)
 .debug_frame   0x0000000000003df8       0xe0 /usr/lib/gcc/arm-none-eabi/9.2.1/../../../arm-none-eabi/lib/thumb/v7e-m+fp/hard/libc_nano.a(lib_a-signal.o)
 .debug_frame   0x0000000000003ed8       0x3c /usr/lib/gcc/arm-none-eabi/9.2.1/../../../arm-none-eabi/lib/thumb/v7e-m+fp/hard/libc_nano.a(lib_a-signalr.o)
 .debug_frame   0x0000000000003f14       0x8c /usr/lib/gcc/arm-none-eabi/9.2.1/../../../arm-none-eabi/lib/thumb/v7e-m+fp/hard/libc_nano.a(lib_a-stdio.o)
 .debug_frame   0x0000000000003fa0       0x2c /usr/lib/gcc/arm-none-eabi/9.2.1/../../../arm-none-eabi/lib/thumb/v7e-m+fp/hard/libc_nano.a(lib_a-writer.o)
 .debug_frame   0x0000000000003fcc       0x2c /usr/lib/gcc/arm-none-eabi/9.2.1/../../../arm-none-eabi/lib/thumb/v7e-m+fp/hard/libc_nano.a(lib_a-closer.o)
 .debug_frame   0x0000000000003ff8       0x2c /usr/lib/gcc/arm-none-eabi/9.2.1/../../../arm-none-eabi/lib/thumb/v7e-m+fp/hard/libc_nano.a(lib_a-fstatr.o)
 .debug_frame   0x0000000000004024       0x2c /usr/lib/gcc/arm-none-eabi/9.2.1/../../../arm-none-eabi/lib/thumb/v7e-m+fp/hard/libc_nano.a(lib_a-isattyr.o)
 .debug_frame   0x0000000000004050       0x2c /usr/lib/gcc/arm-none-eabi/9.2.1/../../../arm-none-eabi/lib/thumb/v7e-m+fp/hard/libc_nano.a(lib_a-lseekr.o)
 .debug_frame   0x000000000000407c       0x20 /usr/lib/gcc/arm-none-eabi/9.2.1/../../../arm-none-eabi/lib/thumb/v7e-m+fp/hard/libc_nano.a(lib_a-nano-msizer.o)
 .debug_frame   0x000000000000409c       0x2c /usr/lib/gcc/arm-none-eabi/9.2.1/../../../arm-none-eabi/lib/thumb/v7e-m+fp/hard/libc_nano.a(lib_a-readr.o)

.debug_ranges   0x0000000000000000     0x1068
 .debug_ranges  0x0000000000000000       0x80 /mnt/d/Marcelo/bitbucket/mcuboot/mcuboot/boot/bootutil/src/bootutil_misc.o
 .debug_ranges  0x0000000000000080       0xd0 /mnt/d/Marcelo/bitbucket/mcuboot/mcuboot/boot/bootutil/src/bootutil_public.o
 .debug_ranges  0x0000000000000150       0x30 /mnt/d/Marcelo/bitbucket/mcuboot/mcuboot/boot/bootutil/src/image_ec256.o
 .debug_ranges  0x0000000000000180       0x40 /mnt/d/Marcelo/bitbucket/mcuboot/mcuboot/boot/bootutil/src/image_validate.o
 .debug_ranges  0x00000000000001c0      0x118 /mnt/d/Marcelo/bitbucket/mcuboot/mcuboot/boot/bootutil/src/loader.o
 .debug_ranges  0x00000000000002d8       0x60 /mnt/d/Marcelo/bitbucket/mcuboot/mcuboot/boot/bootutil/src/swap_misc.o
 .debug_ranges  0x0000000000000338       0x80 /mnt/d/Marcelo/bitbucket/mcuboot/mcuboot/boot/bootutil/src/swap_scratch.o
 .debug_ranges  0x00000000000003b8       0x18 /mnt/d/Marcelo/bitbucket/mcuboot/mcuboot/boot/bootutil/src/tlv.o
 .debug_ranges  0x00000000000003d0       0x18 mcuboot_main.o
 .debug_ranges  0x00000000000003e8       0x30 hal/Core/Src/main.o
 .debug_ranges  0x0000000000000418       0x50 hal/Core/Src/stm32g4xx_it.o
 .debug_ranges  0x0000000000000468       0x20 hal/Core/Src/stm32g4xx_hal_msp.o
 .debug_ranges  0x0000000000000488       0x18 hal/Core/Src/system_stm32g4xx.o
 .debug_ranges  0x00000000000004a0       0x20 hal/startup_stm32g431xx.o
 .debug_ranges  0x00000000000004c0      0x130 hal/Drivers/STM32G4xx_HAL_Driver/Src/stm32g4xx_hal_pwr_ex.o
 .debug_ranges  0x00000000000005f0      0x268 hal/Drivers/STM32G4xx_HAL_Driver/Src/stm32g4xx_hal_uart.o
 .debug_ranges  0x0000000000000858       0x90 hal/Drivers/STM32G4xx_HAL_Driver/Src/stm32g4xx_hal_uart_ex.o
 .debug_ranges  0x00000000000008e8      0x120 hal/Drivers/STM32G4xx_HAL_Driver/Src/stm32g4xx_hal.o
 .debug_ranges  0x0000000000000a08       0x88 hal/Drivers/STM32G4xx_HAL_Driver/Src/stm32g4xx_hal_rcc.o
 .debug_ranges  0x0000000000000a90       0xa0 hal/Drivers/STM32G4xx_HAL_Driver/Src/stm32g4xx_hal_rcc_ex.o
 .debug_ranges  0x0000000000000b30       0x48 hal/Drivers/STM32G4xx_HAL_Driver/Src/stm32g4xx_hal_gpio.o
 .debug_ranges  0x0000000000000b78      0x108 hal/Drivers/STM32G4xx_HAL_Driver/Src/stm32g4xx_hal_cortex.o
 .debug_ranges  0x0000000000000c80       0xc8 /usr/lib/gcc/arm-none-eabi/9.2.1/thumb/v7e-m+fp/hard/libgcc.a(_udivmoddi4.o)
 .debug_ranges  0x0000000000000d48       0x18 /usr/lib/gcc/arm-none-eabi/9.2.1/../../../arm-none-eabi/lib/thumb/v7e-m+fp/hard/libc_nano.a(lib_a-nano-freer.o)
 .debug_ranges  0x0000000000000d60       0x38 /usr/lib/gcc/arm-none-eabi/9.2.1/../../../arm-none-eabi/lib/thumb/v7e-m+fp/hard/libc_nano.a(lib_a-nano-mallocr.o)
 .debug_ranges  0x0000000000000d98       0x28 /usr/lib/gcc/arm-none-eabi/9.2.1/../../../arm-none-eabi/lib/thumb/v7e-m+fp/hard/libc_nano.a(lib_a-nano-vfprintf.o)
 .debug_ranges  0x0000000000000dc0       0x98 /usr/lib/gcc/arm-none-eabi/9.2.1/../../../arm-none-eabi/lib/thumb/v7e-m+fp/hard/libc_nano.a(lib_a-nano-vfprintf_i.o)
 .debug_ranges  0x0000000000000e58       0x20 /usr/lib/gcc/arm-none-eabi/9.2.1/../../../arm-none-eabi/lib/thumb/v7e-m+fp/hard/libc_nano.a(lib_a-wbuf.o)
 .debug_ranges  0x0000000000000e78       0x30 /usr/lib/gcc/arm-none-eabi/9.2.1/../../../arm-none-eabi/lib/thumb/v7e-m+fp/hard/libc_nano.a(lib_a-wsetup.o)
 .debug_ranges  0x0000000000000ea8       0x68 /usr/lib/gcc/arm-none-eabi/9.2.1/../../../arm-none-eabi/lib/thumb/v7e-m+fp/hard/libc_nano.a(lib_a-fflush.o)
 .debug_ranges  0x0000000000000f10       0xe8 /usr/lib/gcc/arm-none-eabi/9.2.1/../../../arm-none-eabi/lib/thumb/v7e-m+fp/hard/libc_nano.a(lib_a-findfp.o)
 .debug_ranges  0x0000000000000ff8       0x18 /usr/lib/gcc/arm-none-eabi/9.2.1/../../../arm-none-eabi/lib/thumb/v7e-m+fp/hard/libc_nano.a(lib_a-fvwrite.o)
 .debug_ranges  0x0000000000001010       0x28 /usr/lib/gcc/arm-none-eabi/9.2.1/../../../arm-none-eabi/lib/thumb/v7e-m+fp/hard/libc_nano.a(lib_a-makebuf.o)
 .debug_ranges  0x0000000000001038       0x30 /usr/lib/gcc/arm-none-eabi/9.2.1/../../../arm-none-eabi/lib/thumb/v7e-m+fp/hard/libc_nano.a(lib_a-signal.o)

Cross Reference Table

Symbol                                            File
ADC1_2_IRQHandler                                 hal/startup_stm32g431xx.o
AHBPrescTable                                     hal/Core/Src/system_stm32g4xx.o
                                                  hal/Drivers/STM32G4xx_HAL_Driver/Src/stm32g4xx_hal_rcc.o
APBPrescTable                                     hal/Core/Src/system_stm32g4xx.o
                                                  hal/Drivers/STM32G4xx_HAL_Driver/Src/stm32g4xx_hal_rcc.o
BusFault_Handler                                  hal/Core/Src/stm32g4xx_it.o
COMP1_2_3_IRQHandler                              hal/startup_stm32g431xx.o
COMP4_IRQHandler                                  hal/startup_stm32g431xx.o
CORDIC_IRQHandler                                 hal/startup_stm32g431xx.o
CRS_IRQHandler                                    hal/startup_stm32g431xx.o
DMA1_Channel1_IRQHandler                          hal/startup_stm32g431xx.o
DMA1_Channel2_IRQHandler                          hal/startup_stm32g431xx.o
DMA1_Channel3_IRQHandler                          hal/startup_stm32g431xx.o
DMA1_Channel4_IRQHandler                          hal/startup_stm32g431xx.o
DMA1_Channel5_IRQHandler                          hal/startup_stm32g431xx.o
DMA1_Channel6_IRQHandler                          hal/startup_stm32g431xx.o
DMA2_Channel1_IRQHandler                          hal/startup_stm32g431xx.o
DMA2_Channel2_IRQHandler                          hal/startup_stm32g431xx.o
DMA2_Channel3_IRQHandler                          hal/startup_stm32g431xx.o
DMA2_Channel4_IRQHandler                          hal/startup_stm32g431xx.o
DMA2_Channel5_IRQHandler                          hal/startup_stm32g431xx.o
DMA2_Channel6_IRQHandler                          hal/startup_stm32g431xx.o
DMAMUX_OVR_IRQHandler                             hal/startup_stm32g431xx.o
DebugMon_Handler                                  hal/Core/Src/stm32g4xx_it.o
Default_Handler                                   hal/startup_stm32g431xx.o
EXTI0_IRQHandler                                  hal/startup_stm32g431xx.o
EXTI15_10_IRQHandler                              hal/startup_stm32g431xx.o
EXTI1_IRQHandler                                  hal/startup_stm32g431xx.o
EXTI2_IRQHandler                                  hal/startup_stm32g431xx.o
EXTI3_IRQHandler                                  hal/startup_stm32g431xx.o
EXTI4_IRQHandler                                  hal/startup_stm32g431xx.o
EXTI9_5_IRQHandler                                hal/startup_stm32g431xx.o
Error_Handler                                     hal/Core/Src/main.o
FDCAN1_IT0_IRQHandler                             hal/startup_stm32g431xx.o
FDCAN1_IT1_IRQHandler                             hal/startup_stm32g431xx.o
FIH_FAILURE                                       /mnt/d/Marcelo/bitbucket/mcuboot/mcuboot/boot/bootutil/src/fault_injection_hardening.o
                                                  /mnt/d/Marcelo/bitbucket/mcuboot/mcuboot/boot/bootutil/src/loader.o
                                                  /mnt/d/Marcelo/bitbucket/mcuboot/mcuboot/boot/bootutil/src/image_validate.o
FIH_SUCCESS                                       /mnt/d/Marcelo/bitbucket/mcuboot/mcuboot/boot/bootutil/src/fault_injection_hardening.o
                                                  /mnt/d/Marcelo/bitbucket/mcuboot/mcuboot/boot/bootutil/src/loader.o
                                                  /mnt/d/Marcelo/bitbucket/mcuboot/mcuboot/boot/bootutil/src/image_validate.o
FLASH_FlushCaches                                 hal/Drivers/STM32G4xx_HAL_Driver/Src/stm32g4xx_hal_flash_ex.o
                                                  hal/Drivers/STM32G4xx_HAL_Driver/Src/stm32g4xx_hal_flash.o
FLASH_IRQHandler                                  hal/startup_stm32g431xx.o
FLASH_PageErase                                   hal/Drivers/STM32G4xx_HAL_Driver/Src/stm32g4xx_hal_flash_ex.o
                                                  hal/Drivers/STM32G4xx_HAL_Driver/Src/stm32g4xx_hal_flash.o
FLASH_WaitForLastOperation                        hal/Drivers/STM32G4xx_HAL_Driver/Src/stm32g4xx_hal_flash.o
                                                  hal/Drivers/STM32G4xx_HAL_Driver/Src/stm32g4xx_hal_flash_ex.o
FMAC_IRQHandler                                   hal/startup_stm32g431xx.o
FPU_IRQHandler                                    hal/startup_stm32g431xx.o
HAL_DBGMCU_DisableDBGSleepMode                    hal/Drivers/STM32G4xx_HAL_Driver/Src/stm32g4xx_hal.o
HAL_DBGMCU_DisableDBGStandbyMode                  hal/Drivers/STM32G4xx_HAL_Driver/Src/stm32g4xx_hal.o
HAL_DBGMCU_DisableDBGStopMode                     hal/Drivers/STM32G4xx_HAL_Driver/Src/stm32g4xx_hal.o
HAL_DBGMCU_EnableDBGSleepMode                     hal/Drivers/STM32G4xx_HAL_Driver/Src/stm32g4xx_hal.o
HAL_DBGMCU_EnableDBGStandbyMode                   hal/Drivers/STM32G4xx_HAL_Driver/Src/stm32g4xx_hal.o
HAL_DBGMCU_EnableDBGStopMode                      hal/Drivers/STM32G4xx_HAL_Driver/Src/stm32g4xx_hal.o
HAL_DMAEx_ConfigMuxRequestGenerator               hal/Drivers/STM32G4xx_HAL_Driver/Src/stm32g4xx_hal_dma_ex.o
HAL_DMAEx_ConfigMuxSync                           hal/Drivers/STM32G4xx_HAL_Driver/Src/stm32g4xx_hal_dma_ex.o
HAL_DMAEx_DisableMuxRequestGenerator              hal/Drivers/STM32G4xx_HAL_Driver/Src/stm32g4xx_hal_dma_ex.o
HAL_DMAEx_EnableMuxRequestGenerator               hal/Drivers/STM32G4xx_HAL_Driver/Src/stm32g4xx_hal_dma_ex.o
HAL_DMAEx_MUX_IRQHandler                          hal/Drivers/STM32G4xx_HAL_Driver/Src/stm32g4xx_hal_dma_ex.o
HAL_DMA_Abort                                     hal/Drivers/STM32G4xx_HAL_Driver/Src/stm32g4xx_hal_dma.o
                                                  hal/Drivers/STM32G4xx_HAL_Driver/Src/stm32g4xx_hal_uart.o
HAL_DMA_Abort_IT                                  hal/Drivers/STM32G4xx_HAL_Driver/Src/stm32g4xx_hal_dma.o
                                                  hal/Drivers/STM32G4xx_HAL_Driver/Src/stm32g4xx_hal_uart.o
HAL_DMA_DeInit                                    hal/Drivers/STM32G4xx_HAL_Driver/Src/stm32g4xx_hal_dma.o
HAL_DMA_GetError                                  hal/Drivers/STM32G4xx_HAL_Driver/Src/stm32g4xx_hal_dma.o
                                                  hal/Drivers/STM32G4xx_HAL_Driver/Src/stm32g4xx_hal_uart.o
HAL_DMA_GetState                                  hal/Drivers/STM32G4xx_HAL_Driver/Src/stm32g4xx_hal_dma.o
HAL_DMA_IRQHandler                                hal/Drivers/STM32G4xx_HAL_Driver/Src/stm32g4xx_hal_dma.o
HAL_DMA_Init                                      hal/Drivers/STM32G4xx_HAL_Driver/Src/stm32g4xx_hal_dma.o
HAL_DMA_PollForTransfer                           hal/Drivers/STM32G4xx_HAL_Driver/Src/stm32g4xx_hal_dma.o
HAL_DMA_RegisterCallback                          hal/Drivers/STM32G4xx_HAL_Driver/Src/stm32g4xx_hal_dma.o
HAL_DMA_Start                                     hal/Drivers/STM32G4xx_HAL_Driver/Src/stm32g4xx_hal_dma.o
HAL_DMA_Start_IT                                  hal/Drivers/STM32G4xx_HAL_Driver/Src/stm32g4xx_hal_dma.o
                                                  hal/Drivers/STM32G4xx_HAL_Driver/Src/stm32g4xx_hal_uart.o
HAL_DMA_UnRegisterCallback                        hal/Drivers/STM32G4xx_HAL_Driver/Src/stm32g4xx_hal_dma.o
HAL_DeInit                                        hal/Drivers/STM32G4xx_HAL_Driver/Src/stm32g4xx_hal.o
HAL_Delay                                         hal/Drivers/STM32G4xx_HAL_Driver/Src/stm32g4xx_hal.o
HAL_EXTI_ClearConfigLine                          hal/Drivers/STM32G4xx_HAL_Driver/Src/stm32g4xx_hal_exti.o
HAL_EXTI_ClearPending                             hal/Drivers/STM32G4xx_HAL_Driver/Src/stm32g4xx_hal_exti.o
HAL_EXTI_GenerateSWI                              hal/Drivers/STM32G4xx_HAL_Driver/Src/stm32g4xx_hal_exti.o
HAL_EXTI_GetConfigLine                            hal/Drivers/STM32G4xx_HAL_Driver/Src/stm32g4xx_hal_exti.o
HAL_EXTI_GetHandle                                hal/Drivers/STM32G4xx_HAL_Driver/Src/stm32g4xx_hal_exti.o
HAL_EXTI_GetPending                               hal/Drivers/STM32G4xx_HAL_Driver/Src/stm32g4xx_hal_exti.o
HAL_EXTI_IRQHandler                               hal/Drivers/STM32G4xx_HAL_Driver/Src/stm32g4xx_hal_exti.o
HAL_EXTI_RegisterCallback                         hal/Drivers/STM32G4xx_HAL_Driver/Src/stm32g4xx_hal_exti.o
HAL_EXTI_SetConfigLine                            hal/Drivers/STM32G4xx_HAL_Driver/Src/stm32g4xx_hal_exti.o
HAL_FLASHEx_DisableDebugger                       hal/Drivers/STM32G4xx_HAL_Driver/Src/stm32g4xx_hal_flash_ex.o
HAL_FLASHEx_DisableRunPowerDown                   hal/Drivers/STM32G4xx_HAL_Driver/Src/stm32g4xx_hal_flash_ramfunc.o
HAL_FLASHEx_EnableDebugger                        hal/Drivers/STM32G4xx_HAL_Driver/Src/stm32g4xx_hal_flash_ex.o
HAL_FLASHEx_EnableRunPowerDown                    hal/Drivers/STM32G4xx_HAL_Driver/Src/stm32g4xx_hal_flash_ramfunc.o
HAL_FLASHEx_EnableSecMemProtection                hal/Drivers/STM32G4xx_HAL_Driver/Src/stm32g4xx_hal_flash_ex.o
HAL_FLASHEx_Erase                                 hal/Drivers/STM32G4xx_HAL_Driver/Src/stm32g4xx_hal_flash_ex.o
HAL_FLASHEx_Erase_IT                              hal/Drivers/STM32G4xx_HAL_Driver/Src/stm32g4xx_hal_flash_ex.o
HAL_FLASHEx_OBGetConfig                           hal/Drivers/STM32G4xx_HAL_Driver/Src/stm32g4xx_hal_flash_ex.o
HAL_FLASHEx_OBProgram                             hal/Drivers/STM32G4xx_HAL_Driver/Src/stm32g4xx_hal_flash_ex.o
HAL_FLASH_EndOfOperationCallback                  hal/Drivers/STM32G4xx_HAL_Driver/Src/stm32g4xx_hal_flash.o
HAL_FLASH_GetError                                hal/Drivers/STM32G4xx_HAL_Driver/Src/stm32g4xx_hal_flash.o
HAL_FLASH_IRQHandler                              hal/Drivers/STM32G4xx_HAL_Driver/Src/stm32g4xx_hal_flash.o
HAL_FLASH_Lock                                    hal/Drivers/STM32G4xx_HAL_Driver/Src/stm32g4xx_hal_flash.o
HAL_FLASH_OB_Launch                               hal/Drivers/STM32G4xx_HAL_Driver/Src/stm32g4xx_hal_flash.o
HAL_FLASH_OB_Lock                                 hal/Drivers/STM32G4xx_HAL_Driver/Src/stm32g4xx_hal_flash.o
HAL_FLASH_OB_Unlock                               hal/Drivers/STM32G4xx_HAL_Driver/Src/stm32g4xx_hal_flash.o
HAL_FLASH_OperationErrorCallback                  hal/Drivers/STM32G4xx_HAL_Driver/Src/stm32g4xx_hal_flash.o
HAL_FLASH_Program                                 hal/Drivers/STM32G4xx_HAL_Driver/Src/stm32g4xx_hal_flash.o
HAL_FLASH_Program_IT                              hal/Drivers/STM32G4xx_HAL_Driver/Src/stm32g4xx_hal_flash.o
HAL_FLASH_Unlock                                  hal/Drivers/STM32G4xx_HAL_Driver/Src/stm32g4xx_hal_flash.o
HAL_GPIO_DeInit                                   hal/Drivers/STM32G4xx_HAL_Driver/Src/stm32g4xx_hal_gpio.o
                                                  hal/Core/Src/stm32g4xx_hal_msp.o
HAL_GPIO_EXTI_Callback                            hal/Drivers/STM32G4xx_HAL_Driver/Src/stm32g4xx_hal_gpio.o
HAL_GPIO_EXTI_IRQHandler                          hal/Drivers/STM32G4xx_HAL_Driver/Src/stm32g4xx_hal_gpio.o
HAL_GPIO_Init                                     hal/Drivers/STM32G4xx_HAL_Driver/Src/stm32g4xx_hal_gpio.o
                                                  hal/Drivers/STM32G4xx_HAL_Driver/Src/stm32g4xx_hal_rcc_ex.o
                                                  hal/Drivers/STM32G4xx_HAL_Driver/Src/stm32g4xx_hal_rcc.o
                                                  hal/Core/Src/stm32g4xx_hal_msp.o
HAL_GPIO_LockPin                                  hal/Drivers/STM32G4xx_HAL_Driver/Src/stm32g4xx_hal_gpio.o
HAL_GPIO_ReadPin                                  hal/Drivers/STM32G4xx_HAL_Driver/Src/stm32g4xx_hal_gpio.o
HAL_GPIO_TogglePin                                hal/Drivers/STM32G4xx_HAL_Driver/Src/stm32g4xx_hal_gpio.o
HAL_GPIO_WritePin                                 hal/Drivers/STM32G4xx_HAL_Driver/Src/stm32g4xx_hal_gpio.o
HAL_GetDEVID                                      hal/Drivers/STM32G4xx_HAL_Driver/Src/stm32g4xx_hal.o
HAL_GetHalVersion                                 hal/Drivers/STM32G4xx_HAL_Driver/Src/stm32g4xx_hal.o
HAL_GetREVID                                      hal/Drivers/STM32G4xx_HAL_Driver/Src/stm32g4xx_hal.o
HAL_GetTick                                       hal/Drivers/STM32G4xx_HAL_Driver/Src/stm32g4xx_hal.o
                                                  hal/Drivers/STM32G4xx_HAL_Driver/Src/stm32g4xx_hal_dma.o
                                                  hal/Drivers/STM32G4xx_HAL_Driver/Src/stm32g4xx_hal_flash.o
                                                  hal/Drivers/STM32G4xx_HAL_Driver/Src/stm32g4xx_hal_rcc_ex.o
                                                  hal/Drivers/STM32G4xx_HAL_Driver/Src/stm32g4xx_hal_rcc.o
                                                  hal/Drivers/STM32G4xx_HAL_Driver/Src/stm32g4xx_hal_uart_ex.o
                                                  hal/Drivers/STM32G4xx_HAL_Driver/Src/stm32g4xx_hal_uart.o
HAL_GetTickFreq                                   hal/Drivers/STM32G4xx_HAL_Driver/Src/stm32g4xx_hal.o
HAL_GetTickPrio                                   hal/Drivers/STM32G4xx_HAL_Driver/Src/stm32g4xx_hal.o
HAL_HalfDuplex_EnableReceiver                     hal/Drivers/STM32G4xx_HAL_Driver/Src/stm32g4xx_hal_uart.o
HAL_HalfDuplex_EnableTransmitter                  hal/Drivers/STM32G4xx_HAL_Driver/Src/stm32g4xx_hal_uart.o
HAL_HalfDuplex_Init                               hal/Drivers/STM32G4xx_HAL_Driver/Src/stm32g4xx_hal_uart.o
HAL_IncTick                                       hal/Drivers/STM32G4xx_HAL_Driver/Src/stm32g4xx_hal.o
                                                  hal/Core/Src/stm32g4xx_it.o
HAL_Init                                          hal/Drivers/STM32G4xx_HAL_Driver/Src/stm32g4xx_hal.o
                                                  hal/Core/Src/main.o
HAL_InitTick                                      hal/Drivers/STM32G4xx_HAL_Driver/Src/stm32g4xx_hal.o
                                                  hal/Drivers/STM32G4xx_HAL_Driver/Src/stm32g4xx_hal_rcc.o
HAL_LIN_Init                                      hal/Drivers/STM32G4xx_HAL_Driver/Src/stm32g4xx_hal_uart.o
HAL_LIN_SendBreak                                 hal/Drivers/STM32G4xx_HAL_Driver/Src/stm32g4xx_hal_uart.o
HAL_MPU_ConfigRegion                              hal/Drivers/STM32G4xx_HAL_Driver/Src/stm32g4xx_hal_cortex.o
HAL_MPU_Disable                                   hal/Drivers/STM32G4xx_HAL_Driver/Src/stm32g4xx_hal_cortex.o
HAL_MPU_Enable                                    hal/Drivers/STM32G4xx_HAL_Driver/Src/stm32g4xx_hal_cortex.o
HAL_MspDeInit                                     hal/Drivers/STM32G4xx_HAL_Driver/Src/stm32g4xx_hal.o
HAL_MspInit                                       hal/Core/Src/stm32g4xx_hal_msp.o
HAL_MultiProcessorEx_AddressLength_Set            hal/Drivers/STM32G4xx_HAL_Driver/Src/stm32g4xx_hal_uart_ex.o
HAL_MultiProcessor_DisableMuteMode                hal/Drivers/STM32G4xx_HAL_Driver/Src/stm32g4xx_hal_uart.o
HAL_MultiProcessor_EnableMuteMode                 hal/Drivers/STM32G4xx_HAL_Driver/Src/stm32g4xx_hal_uart.o
HAL_MultiProcessor_EnterMuteMode                  hal/Drivers/STM32G4xx_HAL_Driver/Src/stm32g4xx_hal_uart.o
HAL_MultiProcessor_Init                           hal/Drivers/STM32G4xx_HAL_Driver/Src/stm32g4xx_hal_uart.o
HAL_NVIC_ClearPendingIRQ                          hal/Drivers/STM32G4xx_HAL_Driver/Src/stm32g4xx_hal_cortex.o
HAL_NVIC_DisableIRQ                               hal/Drivers/STM32G4xx_HAL_Driver/Src/stm32g4xx_hal_cortex.o
HAL_NVIC_EnableIRQ                                hal/Drivers/STM32G4xx_HAL_Driver/Src/stm32g4xx_hal_cortex.o
HAL_NVIC_GetActive                                hal/Drivers/STM32G4xx_HAL_Driver/Src/stm32g4xx_hal_cortex.o
HAL_NVIC_GetPendingIRQ                            hal/Drivers/STM32G4xx_HAL_Driver/Src/stm32g4xx_hal_cortex.o
HAL_NVIC_GetPriority                              hal/Drivers/STM32G4xx_HAL_Driver/Src/stm32g4xx_hal_cortex.o
HAL_NVIC_GetPriorityGrouping                      hal/Drivers/STM32G4xx_HAL_Driver/Src/stm32g4xx_hal_cortex.o
HAL_NVIC_SetPendingIRQ                            hal/Drivers/STM32G4xx_HAL_Driver/Src/stm32g4xx_hal_cortex.o
HAL_NVIC_SetPriority                              hal/Drivers/STM32G4xx_HAL_Driver/Src/stm32g4xx_hal_cortex.o
                                                  hal/Drivers/STM32G4xx_HAL_Driver/Src/stm32g4xx_hal.o
HAL_NVIC_SetPriorityGrouping                      hal/Drivers/STM32G4xx_HAL_Driver/Src/stm32g4xx_hal_cortex.o
                                                  hal/Drivers/STM32G4xx_HAL_Driver/Src/stm32g4xx_hal.o
HAL_NVIC_SystemReset                              hal/Drivers/STM32G4xx_HAL_Driver/Src/stm32g4xx_hal_cortex.o
HAL_PWREx_ConfigPVM                               hal/Drivers/STM32G4xx_HAL_Driver/Src/stm32g4xx_hal_pwr_ex.o
HAL_PWREx_ControlVoltageScaling                   hal/Drivers/STM32G4xx_HAL_Driver/Src/stm32g4xx_hal_pwr_ex.o
                                                  hal/Core/Src/main.o
HAL_PWREx_DisableBatteryCharging                  hal/Drivers/STM32G4xx_HAL_Driver/Src/stm32g4xx_hal_pwr_ex.o
HAL_PWREx_DisableGPIOPullDown                     hal/Drivers/STM32G4xx_HAL_Driver/Src/stm32g4xx_hal_pwr_ex.o
HAL_PWREx_DisableGPIOPullUp                       hal/Drivers/STM32G4xx_HAL_Driver/Src/stm32g4xx_hal_pwr_ex.o
HAL_PWREx_DisableInternalWakeUpLine               hal/Drivers/STM32G4xx_HAL_Driver/Src/stm32g4xx_hal_pwr_ex.o
HAL_PWREx_DisableLowPowerRunMode                  hal/Drivers/STM32G4xx_HAL_Driver/Src/stm32g4xx_hal_pwr_ex.o
                                                  hal/Drivers/STM32G4xx_HAL_Driver/Src/stm32g4xx_hal_pwr.o
HAL_PWREx_DisablePVM1                             hal/Drivers/STM32G4xx_HAL_Driver/Src/stm32g4xx_hal_pwr_ex.o
HAL_PWREx_DisablePVM2                             hal/Drivers/STM32G4xx_HAL_Driver/Src/stm32g4xx_hal_pwr_ex.o
HAL_PWREx_DisablePVM3                             hal/Drivers/STM32G4xx_HAL_Driver/Src/stm32g4xx_hal_pwr_ex.o
HAL_PWREx_DisablePVM4                             hal/Drivers/STM32G4xx_HAL_Driver/Src/stm32g4xx_hal_pwr_ex.o
HAL_PWREx_DisablePullUpPullDownConfig             hal/Drivers/STM32G4xx_HAL_Driver/Src/stm32g4xx_hal_pwr_ex.o
HAL_PWREx_DisableSRAM2ContentRetention            hal/Drivers/STM32G4xx_HAL_Driver/Src/stm32g4xx_hal_pwr_ex.o
HAL_PWREx_DisableUCPDDeadBattery                  hal/Drivers/STM32G4xx_HAL_Driver/Src/stm32g4xx_hal_pwr_ex.o
                                                  hal/Core/Src/stm32g4xx_hal_msp.o
HAL_PWREx_DisableUCPDStandbyMode                  hal/Drivers/STM32G4xx_HAL_Driver/Src/stm32g4xx_hal_pwr_ex.o
HAL_PWREx_EnableBatteryCharging                   hal/Drivers/STM32G4xx_HAL_Driver/Src/stm32g4xx_hal_pwr_ex.o
HAL_PWREx_EnableGPIOPullDown                      hal/Drivers/STM32G4xx_HAL_Driver/Src/stm32g4xx_hal_pwr_ex.o
HAL_PWREx_EnableGPIOPullUp                        hal/Drivers/STM32G4xx_HAL_Driver/Src/stm32g4xx_hal_pwr_ex.o
HAL_PWREx_EnableInternalWakeUpLine                hal/Drivers/STM32G4xx_HAL_Driver/Src/stm32g4xx_hal_pwr_ex.o
HAL_PWREx_EnableLowPowerRunMode                   hal/Drivers/STM32G4xx_HAL_Driver/Src/stm32g4xx_hal_pwr_ex.o
                                                  hal/Drivers/STM32G4xx_HAL_Driver/Src/stm32g4xx_hal_pwr.o
HAL_PWREx_EnablePVM1                              hal/Drivers/STM32G4xx_HAL_Driver/Src/stm32g4xx_hal_pwr_ex.o
HAL_PWREx_EnablePVM2                              hal/Drivers/STM32G4xx_HAL_Driver/Src/stm32g4xx_hal_pwr_ex.o
HAL_PWREx_EnablePVM3                              hal/Drivers/STM32G4xx_HAL_Driver/Src/stm32g4xx_hal_pwr_ex.o
HAL_PWREx_EnablePVM4                              hal/Drivers/STM32G4xx_HAL_Driver/Src/stm32g4xx_hal_pwr_ex.o
HAL_PWREx_EnablePullUpPullDownConfig              hal/Drivers/STM32G4xx_HAL_Driver/Src/stm32g4xx_hal_pwr_ex.o
HAL_PWREx_EnableSRAM2ContentRetention             hal/Drivers/STM32G4xx_HAL_Driver/Src/stm32g4xx_hal_pwr_ex.o
HAL_PWREx_EnableUCPDDeadBattery                   hal/Drivers/STM32G4xx_HAL_Driver/Src/stm32g4xx_hal_pwr_ex.o
HAL_PWREx_EnableUCPDStandbyMode                   hal/Drivers/STM32G4xx_HAL_Driver/Src/stm32g4xx_hal_pwr_ex.o
HAL_PWREx_EnterSHUTDOWNMode                       hal/Drivers/STM32G4xx_HAL_Driver/Src/stm32g4xx_hal_pwr_ex.o
HAL_PWREx_EnterSTOP0Mode                          hal/Drivers/STM32G4xx_HAL_Driver/Src/stm32g4xx_hal_pwr_ex.o
                                                  hal/Drivers/STM32G4xx_HAL_Driver/Src/stm32g4xx_hal_pwr.o
HAL_PWREx_EnterSTOP1Mode                          hal/Drivers/STM32G4xx_HAL_Driver/Src/stm32g4xx_hal_pwr_ex.o
                                                  hal/Drivers/STM32G4xx_HAL_Driver/Src/stm32g4xx_hal_pwr.o
HAL_PWREx_GetVoltageRange                         hal/Drivers/STM32G4xx_HAL_Driver/Src/stm32g4xx_hal_pwr_ex.o
HAL_PWREx_PVD_PVM_IRQHandler                      hal/Drivers/STM32G4xx_HAL_Driver/Src/stm32g4xx_hal_pwr_ex.o
HAL_PWREx_PVM1Callback                            hal/Drivers/STM32G4xx_HAL_Driver/Src/stm32g4xx_hal_pwr_ex.o
HAL_PWREx_PVM2Callback                            hal/Drivers/STM32G4xx_HAL_Driver/Src/stm32g4xx_hal_pwr_ex.o
HAL_PWREx_PVM3Callback                            hal/Drivers/STM32G4xx_HAL_Driver/Src/stm32g4xx_hal_pwr_ex.o
HAL_PWREx_PVM4Callback                            hal/Drivers/STM32G4xx_HAL_Driver/Src/stm32g4xx_hal_pwr_ex.o
HAL_PWR_ConfigPVD                                 hal/Drivers/STM32G4xx_HAL_Driver/Src/stm32g4xx_hal_pwr.o
HAL_PWR_DeInit                                    hal/Drivers/STM32G4xx_HAL_Driver/Src/stm32g4xx_hal_pwr.o
HAL_PWR_DisableBkUpAccess                         hal/Drivers/STM32G4xx_HAL_Driver/Src/stm32g4xx_hal_pwr.o
                                                  hal/Drivers/STM32G4xx_HAL_Driver/Src/stm32g4xx_hal_rcc_ex.o
HAL_PWR_DisablePVD                                hal/Drivers/STM32G4xx_HAL_Driver/Src/stm32g4xx_hal_pwr.o
HAL_PWR_DisableSEVOnPend                          hal/Drivers/STM32G4xx_HAL_Driver/Src/stm32g4xx_hal_pwr.o
HAL_PWR_DisableSleepOnExit                        hal/Drivers/STM32G4xx_HAL_Driver/Src/stm32g4xx_hal_pwr.o
HAL_PWR_DisableWakeUpPin                          hal/Drivers/STM32G4xx_HAL_Driver/Src/stm32g4xx_hal_pwr.o
HAL_PWR_EnableBkUpAccess                          hal/Drivers/STM32G4xx_HAL_Driver/Src/stm32g4xx_hal_pwr.o
                                                  hal/Drivers/STM32G4xx_HAL_Driver/Src/stm32g4xx_hal_rcc_ex.o
HAL_PWR_EnablePVD                                 hal/Drivers/STM32G4xx_HAL_Driver/Src/stm32g4xx_hal_pwr.o
HAL_PWR_EnableSEVOnPend                           hal/Drivers/STM32G4xx_HAL_Driver/Src/stm32g4xx_hal_pwr.o
HAL_PWR_EnableSleepOnExit                         hal/Drivers/STM32G4xx_HAL_Driver/Src/stm32g4xx_hal_pwr.o
HAL_PWR_EnableWakeUpPin                           hal/Drivers/STM32G4xx_HAL_Driver/Src/stm32g4xx_hal_pwr.o
HAL_PWR_EnterSLEEPMode                            hal/Drivers/STM32G4xx_HAL_Driver/Src/stm32g4xx_hal_pwr.o
HAL_PWR_EnterSTANDBYMode                          hal/Drivers/STM32G4xx_HAL_Driver/Src/stm32g4xx_hal_pwr.o
HAL_PWR_EnterSTOPMode                             hal/Drivers/STM32G4xx_HAL_Driver/Src/stm32g4xx_hal_pwr.o
HAL_PWR_PVDCallback                               hal/Drivers/STM32G4xx_HAL_Driver/Src/stm32g4xx_hal_pwr.o
                                                  hal/Drivers/STM32G4xx_HAL_Driver/Src/stm32g4xx_hal_pwr_ex.o
HAL_RCCEx_CRSConfig                               hal/Drivers/STM32G4xx_HAL_Driver/Src/stm32g4xx_hal_rcc_ex.o
HAL_RCCEx_CRSGetSynchronizationInfo               hal/Drivers/STM32G4xx_HAL_Driver/Src/stm32g4xx_hal_rcc_ex.o
HAL_RCCEx_CRSSoftwareSynchronizationGenerate      hal/Drivers/STM32G4xx_HAL_Driver/Src/stm32g4xx_hal_rcc_ex.o
HAL_RCCEx_CRSWaitSynchronization                  hal/Drivers/STM32G4xx_HAL_Driver/Src/stm32g4xx_hal_rcc_ex.o
HAL_RCCEx_CRS_ErrorCallback                       hal/Drivers/STM32G4xx_HAL_Driver/Src/stm32g4xx_hal_rcc_ex.o
HAL_RCCEx_CRS_ExpectedSyncCallback                hal/Drivers/STM32G4xx_HAL_Driver/Src/stm32g4xx_hal_rcc_ex.o
HAL_RCCEx_CRS_IRQHandler                          hal/Drivers/STM32G4xx_HAL_Driver/Src/stm32g4xx_hal_rcc_ex.o
HAL_RCCEx_CRS_SyncOkCallback                      hal/Drivers/STM32G4xx_HAL_Driver/Src/stm32g4xx_hal_rcc_ex.o
HAL_RCCEx_CRS_SyncWarnCallback                    hal/Drivers/STM32G4xx_HAL_Driver/Src/stm32g4xx_hal_rcc_ex.o
HAL_RCCEx_DisableLSCO                             hal/Drivers/STM32G4xx_HAL_Driver/Src/stm32g4xx_hal_rcc_ex.o
HAL_RCCEx_DisableLSECSS                           hal/Drivers/STM32G4xx_HAL_Driver/Src/stm32g4xx_hal_rcc_ex.o
HAL_RCCEx_EnableLSCO                              hal/Drivers/STM32G4xx_HAL_Driver/Src/stm32g4xx_hal_rcc_ex.o
HAL_RCCEx_EnableLSECSS                            hal/Drivers/STM32G4xx_HAL_Driver/Src/stm32g4xx_hal_rcc_ex.o
HAL_RCCEx_EnableLSECSS_IT                         hal/Drivers/STM32G4xx_HAL_Driver/Src/stm32g4xx_hal_rcc_ex.o
HAL_RCCEx_GetPeriphCLKConfig                      hal/Drivers/STM32G4xx_HAL_Driver/Src/stm32g4xx_hal_rcc_ex.o
HAL_RCCEx_GetPeriphCLKFreq                        hal/Drivers/STM32G4xx_HAL_Driver/Src/stm32g4xx_hal_rcc_ex.o
HAL_RCCEx_LSECSS_Callback                         hal/Drivers/STM32G4xx_HAL_Driver/Src/stm32g4xx_hal_rcc_ex.o
HAL_RCCEx_LSECSS_IRQHandler                       hal/Drivers/STM32G4xx_HAL_Driver/Src/stm32g4xx_hal_rcc_ex.o
HAL_RCCEx_PeriphCLKConfig                         hal/Drivers/STM32G4xx_HAL_Driver/Src/stm32g4xx_hal_rcc_ex.o
                                                  hal/Core/Src/main.o
HAL_RCC_CSSCallback                               hal/Drivers/STM32G4xx_HAL_Driver/Src/stm32g4xx_hal_rcc.o
HAL_RCC_ClockConfig                               hal/Drivers/STM32G4xx_HAL_Driver/Src/stm32g4xx_hal_rcc.o
                                                  hal/Core/Src/main.o
HAL_RCC_DeInit                                    hal/Drivers/STM32G4xx_HAL_Driver/Src/stm32g4xx_hal_rcc.o
HAL_RCC_DisableLSECSS                             hal/Drivers/STM32G4xx_HAL_Driver/Src/stm32g4xx_hal_rcc.o
HAL_RCC_EnableCSS                                 hal/Drivers/STM32G4xx_HAL_Driver/Src/stm32g4xx_hal_rcc.o
HAL_RCC_EnableLSECSS                              hal/Drivers/STM32G4xx_HAL_Driver/Src/stm32g4xx_hal_rcc.o
HAL_RCC_GetClockConfig                            hal/Drivers/STM32G4xx_HAL_Driver/Src/stm32g4xx_hal_rcc.o
HAL_RCC_GetHCLKFreq                               hal/Drivers/STM32G4xx_HAL_Driver/Src/stm32g4xx_hal_rcc.o
HAL_RCC_GetOscConfig                              hal/Drivers/STM32G4xx_HAL_Driver/Src/stm32g4xx_hal_rcc.o
HAL_RCC_GetPCLK1Freq                              hal/Drivers/STM32G4xx_HAL_Driver/Src/stm32g4xx_hal_rcc.o
                                                  hal/Drivers/STM32G4xx_HAL_Driver/Src/stm32g4xx_hal_rcc_ex.o
                                                  hal/Drivers/STM32G4xx_HAL_Driver/Src/stm32g4xx_hal_uart.o
HAL_RCC_GetPCLK2Freq                              hal/Drivers/STM32G4xx_HAL_Driver/Src/stm32g4xx_hal_rcc.o
                                                  hal/Drivers/STM32G4xx_HAL_Driver/Src/stm32g4xx_hal_rcc_ex.o
                                                  hal/Drivers/STM32G4xx_HAL_Driver/Src/stm32g4xx_hal_uart.o
HAL_RCC_GetSysClockFreq                           hal/Drivers/STM32G4xx_HAL_Driver/Src/stm32g4xx_hal_rcc.o
                                                  hal/Drivers/STM32G4xx_HAL_Driver/Src/stm32g4xx_hal_rcc_ex.o
                                                  hal/Drivers/STM32G4xx_HAL_Driver/Src/stm32g4xx_hal_uart.o
HAL_RCC_MCOConfig                                 hal/Drivers/STM32G4xx_HAL_Driver/Src/stm32g4xx_hal_rcc.o
HAL_RCC_NMI_IRQHandler                            hal/Drivers/STM32G4xx_HAL_Driver/Src/stm32g4xx_hal_rcc.o
HAL_RCC_OscConfig                                 hal/Drivers/STM32G4xx_HAL_Driver/Src/stm32g4xx_hal_rcc.o
                                                  hal/Core/Src/main.o
HAL_RS485Ex_Init                                  hal/Drivers/STM32G4xx_HAL_Driver/Src/stm32g4xx_hal_uart_ex.o
HAL_ResumeTick                                    hal/Drivers/STM32G4xx_HAL_Driver/Src/stm32g4xx_hal.o
HAL_SYSCFG_CCMSRAMErase                           hal/Drivers/STM32G4xx_HAL_Driver/Src/stm32g4xx_hal.o
HAL_SYSCFG_CCMSRAM_WriteProtectionEnable          hal/Drivers/STM32G4xx_HAL_Driver/Src/stm32g4xx_hal.o
HAL_SYSCFG_DisableIOSwitchBooster                 hal/Drivers/STM32G4xx_HAL_Driver/Src/stm32g4xx_hal.o
HAL_SYSCFG_DisableIOSwitchVDD                     hal/Drivers/STM32G4xx_HAL_Driver/Src/stm32g4xx_hal.o
HAL_SYSCFG_DisableMemorySwappingBank              hal/Drivers/STM32G4xx_HAL_Driver/Src/stm32g4xx_hal.o
HAL_SYSCFG_DisableVREFBUF                         hal/Drivers/STM32G4xx_HAL_Driver/Src/stm32g4xx_hal.o
HAL_SYSCFG_EnableIOSwitchBooster                  hal/Drivers/STM32G4xx_HAL_Driver/Src/stm32g4xx_hal.o
HAL_SYSCFG_EnableIOSwitchVDD                      hal/Drivers/STM32G4xx_HAL_Driver/Src/stm32g4xx_hal.o
HAL_SYSCFG_EnableMemorySwappingBank               hal/Drivers/STM32G4xx_HAL_Driver/Src/stm32g4xx_hal.o
HAL_SYSCFG_EnableVREFBUF                          hal/Drivers/STM32G4xx_HAL_Driver/Src/stm32g4xx_hal.o
HAL_SYSCFG_VREFBUF_HighImpedanceConfig            hal/Drivers/STM32G4xx_HAL_Driver/Src/stm32g4xx_hal.o
HAL_SYSCFG_VREFBUF_TrimmingConfig                 hal/Drivers/STM32G4xx_HAL_Driver/Src/stm32g4xx_hal.o
HAL_SYSCFG_VREFBUF_VoltageScalingConfig           hal/Drivers/STM32G4xx_HAL_Driver/Src/stm32g4xx_hal.o
HAL_SYSTICK_CLKSourceConfig                       hal/Drivers/STM32G4xx_HAL_Driver/Src/stm32g4xx_hal_cortex.o
HAL_SYSTICK_Callback                              hal/Drivers/STM32G4xx_HAL_Driver/Src/stm32g4xx_hal_cortex.o
HAL_SYSTICK_Config                                hal/Drivers/STM32G4xx_HAL_Driver/Src/stm32g4xx_hal_cortex.o
                                                  hal/Drivers/STM32G4xx_HAL_Driver/Src/stm32g4xx_hal.o
HAL_SYSTICK_IRQHandler                            hal/Drivers/STM32G4xx_HAL_Driver/Src/stm32g4xx_hal_cortex.o
HAL_SetTickFreq                                   hal/Drivers/STM32G4xx_HAL_Driver/Src/stm32g4xx_hal.o
HAL_SuspendTick                                   hal/Drivers/STM32G4xx_HAL_Driver/Src/stm32g4xx_hal.o
HAL_UARTEx_DisableFifoMode                        hal/Drivers/STM32G4xx_HAL_Driver/Src/stm32g4xx_hal_uart_ex.o
                                                  hal/Core/Src/main.o
HAL_UARTEx_DisableStopMode                        hal/Drivers/STM32G4xx_HAL_Driver/Src/stm32g4xx_hal_uart_ex.o
HAL_UARTEx_EnableFifoMode                         hal/Drivers/STM32G4xx_HAL_Driver/Src/stm32g4xx_hal_uart_ex.o
HAL_UARTEx_EnableStopMode                         hal/Drivers/STM32G4xx_HAL_Driver/Src/stm32g4xx_hal_uart_ex.o
HAL_UARTEx_ReceiveToIdle                          hal/Drivers/STM32G4xx_HAL_Driver/Src/stm32g4xx_hal_uart_ex.o
HAL_UARTEx_ReceiveToIdle_DMA                      hal/Drivers/STM32G4xx_HAL_Driver/Src/stm32g4xx_hal_uart_ex.o
HAL_UARTEx_ReceiveToIdle_IT                       hal/Drivers/STM32G4xx_HAL_Driver/Src/stm32g4xx_hal_uart_ex.o
HAL_UARTEx_RxEventCallback                        hal/Drivers/STM32G4xx_HAL_Driver/Src/stm32g4xx_hal_uart.o
HAL_UARTEx_RxFifoFullCallback                     hal/Drivers/STM32G4xx_HAL_Driver/Src/stm32g4xx_hal_uart_ex.o
                                                  hal/Drivers/STM32G4xx_HAL_Driver/Src/stm32g4xx_hal_uart.o
HAL_UARTEx_SetRxFifoThreshold                     hal/Drivers/STM32G4xx_HAL_Driver/Src/stm32g4xx_hal_uart_ex.o
                                                  hal/Core/Src/main.o
HAL_UARTEx_SetTxFifoThreshold                     hal/Drivers/STM32G4xx_HAL_Driver/Src/stm32g4xx_hal_uart_ex.o
                                                  hal/Core/Src/main.o
HAL_UARTEx_StopModeWakeUpSourceConfig             hal/Drivers/STM32G4xx_HAL_Driver/Src/stm32g4xx_hal_uart_ex.o
HAL_UARTEx_TxFifoEmptyCallback                    hal/Drivers/STM32G4xx_HAL_Driver/Src/stm32g4xx_hal_uart_ex.o
                                                  hal/Drivers/STM32G4xx_HAL_Driver/Src/stm32g4xx_hal_uart.o
HAL_UARTEx_WakeupCallback                         hal/Drivers/STM32G4xx_HAL_Driver/Src/stm32g4xx_hal_uart_ex.o
                                                  hal/Drivers/STM32G4xx_HAL_Driver/Src/stm32g4xx_hal_uart.o
HAL_UART_Abort                                    hal/Drivers/STM32G4xx_HAL_Driver/Src/stm32g4xx_hal_uart.o
HAL_UART_AbortCpltCallback                        hal/Drivers/STM32G4xx_HAL_Driver/Src/stm32g4xx_hal_uart.o
HAL_UART_AbortReceive                             hal/Drivers/STM32G4xx_HAL_Driver/Src/stm32g4xx_hal_uart.o
HAL_UART_AbortReceiveCpltCallback                 hal/Drivers/STM32G4xx_HAL_Driver/Src/stm32g4xx_hal_uart.o
HAL_UART_AbortReceive_IT                          hal/Drivers/STM32G4xx_HAL_Driver/Src/stm32g4xx_hal_uart.o
HAL_UART_AbortTransmit                            hal/Drivers/STM32G4xx_HAL_Driver/Src/stm32g4xx_hal_uart.o
HAL_UART_AbortTransmitCpltCallback                hal/Drivers/STM32G4xx_HAL_Driver/Src/stm32g4xx_hal_uart.o
HAL_UART_AbortTransmit_IT                         hal/Drivers/STM32G4xx_HAL_Driver/Src/stm32g4xx_hal_uart.o
HAL_UART_Abort_IT                                 hal/Drivers/STM32G4xx_HAL_Driver/Src/stm32g4xx_hal_uart.o
HAL_UART_DMAPause                                 hal/Drivers/STM32G4xx_HAL_Driver/Src/stm32g4xx_hal_uart.o
HAL_UART_DMAResume                                hal/Drivers/STM32G4xx_HAL_Driver/Src/stm32g4xx_hal_uart.o
HAL_UART_DMAStop                                  hal/Drivers/STM32G4xx_HAL_Driver/Src/stm32g4xx_hal_uart.o
HAL_UART_DeInit                                   hal/Drivers/STM32G4xx_HAL_Driver/Src/stm32g4xx_hal_uart.o
HAL_UART_DisableReceiverTimeout                   hal/Drivers/STM32G4xx_HAL_Driver/Src/stm32g4xx_hal_uart.o
HAL_UART_EnableReceiverTimeout                    hal/Drivers/STM32G4xx_HAL_Driver/Src/stm32g4xx_hal_uart.o
HAL_UART_ErrorCallback                            hal/Drivers/STM32G4xx_HAL_Driver/Src/stm32g4xx_hal_uart.o
HAL_UART_GetError                                 hal/Drivers/STM32G4xx_HAL_Driver/Src/stm32g4xx_hal_uart.o
HAL_UART_GetState                                 hal/Drivers/STM32G4xx_HAL_Driver/Src/stm32g4xx_hal_uart.o
HAL_UART_IRQHandler                               hal/Drivers/STM32G4xx_HAL_Driver/Src/stm32g4xx_hal_uart.o
HAL_UART_Init                                     hal/Drivers/STM32G4xx_HAL_Driver/Src/stm32g4xx_hal_uart.o
                                                  hal/Core/Src/main.o
HAL_UART_MspDeInit                                hal/Core/Src/stm32g4xx_hal_msp.o
HAL_UART_MspInit                                  hal/Core/Src/stm32g4xx_hal_msp.o
                                                  hal/Drivers/STM32G4xx_HAL_Driver/Src/stm32g4xx_hal_uart_ex.o
HAL_UART_Receive                                  hal/Drivers/STM32G4xx_HAL_Driver/Src/stm32g4xx_hal_uart.o
HAL_UART_Receive_DMA                              hal/Drivers/STM32G4xx_HAL_Driver/Src/stm32g4xx_hal_uart.o
HAL_UART_Receive_IT                               hal/Drivers/STM32G4xx_HAL_Driver/Src/stm32g4xx_hal_uart.o
HAL_UART_ReceiverTimeout_Config                   hal/Drivers/STM32G4xx_HAL_Driver/Src/stm32g4xx_hal_uart.o
HAL_UART_RxCpltCallback                           hal/Drivers/STM32G4xx_HAL_Driver/Src/stm32g4xx_hal_uart.o
HAL_UART_RxHalfCpltCallback                       hal/Drivers/STM32G4xx_HAL_Driver/Src/stm32g4xx_hal_uart.o
HAL_UART_Transmit                                 hal/Drivers/STM32G4xx_HAL_Driver/Src/stm32g4xx_hal_uart.o
HAL_UART_Transmit_DMA                             hal/Drivers/STM32G4xx_HAL_Driver/Src/stm32g4xx_hal_uart.o
HAL_UART_Transmit_IT                              hal/Drivers/STM32G4xx_HAL_Driver/Src/stm32g4xx_hal_uart.o
HAL_UART_TxCpltCallback                           hal/Drivers/STM32G4xx_HAL_Driver/Src/stm32g4xx_hal_uart.o
HAL_UART_TxHalfCpltCallback                       hal/Drivers/STM32G4xx_HAL_Driver/Src/stm32g4xx_hal_uart.o
HardFault_Handler                                 hal/Core/Src/stm32g4xx_it.o
I2C1_ER_IRQHandler                                hal/startup_stm32g431xx.o
I2C1_EV_IRQHandler                                hal/startup_stm32g431xx.o
I2C2_ER_IRQHandler                                hal/startup_stm32g431xx.o
I2C2_EV_IRQHandler                                hal/startup_stm32g431xx.o
I2C3_ER_IRQHandler                                hal/startup_stm32g431xx.o
I2C3_EV_IRQHandler                                hal/startup_stm32g431xx.o
LPTIM1_IRQHandler                                 hal/startup_stm32g431xx.o
LPUART1_IRQHandler                                hal/startup_stm32g431xx.o
MCUBOOT_WATCHDOG_FEED                             /mnt/d/Marcelo/bitbucket/mcuboot/mcuboot/boot/bootutil/src/loader.o
MemManage_Handler                                 hal/Core/Src/stm32g4xx_it.o
NMI_Handler                                       hal/Core/Src/stm32g4xx_it.o
PVD_PVM_IRQHandler                                hal/startup_stm32g431xx.o
PendSV_Handler                                    hal/Core/Src/stm32g4xx_it.o
RCC_IRQHandler                                    hal/startup_stm32g431xx.o
RNG_IRQHandler                                    hal/startup_stm32g431xx.o
RTC_Alarm_IRQHandler                              hal/startup_stm32g431xx.o
RTC_TAMP_LSECSS_IRQHandler                        hal/startup_stm32g431xx.o
RTC_WKUP_IRQHandler                               hal/startup_stm32g431xx.o
Reset_Handler                                     hal/startup_stm32g431xx.o
SAI1_IRQHandler                                   hal/startup_stm32g431xx.o
SPI1_IRQHandler                                   hal/startup_stm32g431xx.o
SPI2_IRQHandler                                   hal/startup_stm32g431xx.o
SPI3_IRQHandler                                   hal/startup_stm32g431xx.o
SVC_Handler                                       hal/Core/Src/stm32g4xx_it.o
SysTick_Handler                                   hal/Core/Src/stm32g4xx_it.o
SystemClock_Config                                hal/Core/Src/main.o
SystemCoreClock                                   hal/Core/Src/system_stm32g4xx.o
                                                  hal/Drivers/STM32G4xx_HAL_Driver/Src/stm32g4xx_hal_rcc.o
                                                  hal/Drivers/STM32G4xx_HAL_Driver/Src/stm32g4xx_hal.o
                                                  hal/Drivers/STM32G4xx_HAL_Driver/Src/stm32g4xx_hal_pwr_ex.o
SystemCoreClockUpdate                             hal/Core/Src/system_stm32g4xx.o
SystemInit                                        hal/Core/Src/system_stm32g4xx.o
                                                  hal/startup_stm32g431xx.o
TIM1_BRK_TIM15_IRQHandler                         hal/startup_stm32g431xx.o
TIM1_CC_IRQHandler                                hal/startup_stm32g431xx.o
TIM1_TRG_COM_TIM17_IRQHandler                     hal/startup_stm32g431xx.o
TIM1_UP_TIM16_IRQHandler                          hal/startup_stm32g431xx.o
TIM2_IRQHandler                                   hal/startup_stm32g431xx.o
TIM3_IRQHandler                                   hal/startup_stm32g431xx.o
TIM4_IRQHandler                                   hal/startup_stm32g431xx.o
TIM6_DAC_IRQHandler                               hal/startup_stm32g431xx.o
TIM7_IRQHandler                                   hal/startup_stm32g431xx.o
TIM8_BRK_IRQHandler                               hal/startup_stm32g431xx.o
TIM8_CC_IRQHandler                                hal/startup_stm32g431xx.o
TIM8_TRG_COM_IRQHandler                           hal/startup_stm32g431xx.o
TIM8_UP_IRQHandler                                hal/startup_stm32g431xx.o
UART4_IRQHandler                                  hal/startup_stm32g431xx.o
UARTPrescTable                                    hal/Drivers/STM32G4xx_HAL_Driver/Src/stm32g4xx_hal_uart.o
UART_AdvFeatureConfig                             hal/Drivers/STM32G4xx_HAL_Driver/Src/stm32g4xx_hal_uart.o
                                                  hal/Drivers/STM32G4xx_HAL_Driver/Src/stm32g4xx_hal_uart_ex.o
UART_CheckIdleState                               hal/Drivers/STM32G4xx_HAL_Driver/Src/stm32g4xx_hal_uart.o
                                                  hal/Drivers/STM32G4xx_HAL_Driver/Src/stm32g4xx_hal_uart_ex.o
UART_SetConfig                                    hal/Drivers/STM32G4xx_HAL_Driver/Src/stm32g4xx_hal_uart.o
                                                  hal/Drivers/STM32G4xx_HAL_Driver/Src/stm32g4xx_hal_uart_ex.o
UART_Start_Receive_DMA                            hal/Drivers/STM32G4xx_HAL_Driver/Src/stm32g4xx_hal_uart.o
                                                  hal/Drivers/STM32G4xx_HAL_Driver/Src/stm32g4xx_hal_uart_ex.o
UART_Start_Receive_IT                             hal/Drivers/STM32G4xx_HAL_Driver/Src/stm32g4xx_hal_uart.o
                                                  hal/Drivers/STM32G4xx_HAL_Driver/Src/stm32g4xx_hal_uart_ex.o
UART_WaitOnFlagUntilTimeout                       hal/Drivers/STM32G4xx_HAL_Driver/Src/stm32g4xx_hal_uart.o
                                                  hal/Drivers/STM32G4xx_HAL_Driver/Src/stm32g4xx_hal_uart_ex.o
UCPD1_IRQHandler                                  hal/startup_stm32g431xx.o
USART1_IRQHandler                                 hal/startup_stm32g431xx.o
USART2_IRQHandler                                 hal/startup_stm32g431xx.o
USART3_IRQHandler                                 hal/startup_stm32g431xx.o
USBWakeUp_IRQHandler                              hal/startup_stm32g431xx.o
USB_HP_IRQHandler                                 hal/startup_stm32g431xx.o
USB_LP_IRQHandler                                 hal/startup_stm32g431xx.o
UsageFault_Handler                                hal/Core/Src/stm32g4xx_it.o
WWDG_IRQHandler                                   hal/startup_stm32g431xx.o
_ITM_deregisterTMCloneTable                       /usr/lib/gcc/arm-none-eabi/9.2.1/thumb/v7e-m+fp/hard/crtbegin.o
_ITM_registerTMCloneTable                         /usr/lib/gcc/arm-none-eabi/9.2.1/thumb/v7e-m+fp/hard/crtbegin.o
__TMC_END__                                       /usr/lib/gcc/arm-none-eabi/9.2.1/thumb/v7e-m+fp/hard/crtend.o
                                                  /usr/lib/gcc/arm-none-eabi/9.2.1/thumb/v7e-m+fp/hard/crtbegin.o
__aeabi_idiv0                                     /usr/lib/gcc/arm-none-eabi/9.2.1/thumb/v7e-m+fp/hard/libgcc.a(_dvmd_tls.o)
__aeabi_ldiv0                                     /usr/lib/gcc/arm-none-eabi/9.2.1/thumb/v7e-m+fp/hard/libgcc.a(_dvmd_tls.o)
                                                  /usr/lib/gcc/arm-none-eabi/9.2.1/thumb/v7e-m+fp/hard/libgcc.a(_aeabi_uldivmod.o)
__aeabi_uldivmod                                  /usr/lib/gcc/arm-none-eabi/9.2.1/thumb/v7e-m+fp/hard/libgcc.a(_aeabi_uldivmod.o)
                                                  hal/Drivers/STM32G4xx_HAL_Driver/Src/stm32g4xx_hal_uart.o
__assert                                          /usr/lib/gcc/arm-none-eabi/9.2.1/../../../arm-none-eabi/lib/thumb/v7e-m+fp/hard/libc_nano.a(lib_a-assert.o)
__assert_func                                     /usr/lib/gcc/arm-none-eabi/9.2.1/../../../arm-none-eabi/lib/thumb/v7e-m+fp/hard/libc_nano.a(lib_a-assert.o)
                                                  /mnt/d/Marcelo/bitbucket/mcuboot/mcuboot/boot/bootutil/src/swap_scratch.o
                                                  /mnt/d/Marcelo/bitbucket/mcuboot/mcuboot/boot/bootutil/src/swap_misc.o
                                                  /mnt/d/Marcelo/bitbucket/mcuboot/mcuboot/boot/bootutil/src/loader.o
                                                  /mnt/d/Marcelo/bitbucket/mcuboot/mcuboot/boot/bootutil/src/bootutil_public.o
                                                  /mnt/d/Marcelo/bitbucket/mcuboot/mcuboot/boot/bootutil/src/bootutil_misc.o
__atexit_dummy                                    /usr/lib/gcc/arm-none-eabi/9.2.1/../../../arm-none-eabi/lib/thumb/v7e-m+fp/hard/libc_nano.a(lib_a-__atexit.o)
__bss_end__                                       /usr/lib/gcc/arm-none-eabi/9.2.1/../../../arm-none-eabi/lib/thumb/v7e-m+fp/hard/crt0.o
__bss_start__                                     /usr/lib/gcc/arm-none-eabi/9.2.1/../../../arm-none-eabi/lib/thumb/v7e-m+fp/hard/crt0.o
__call_exitprocs                                  /usr/lib/gcc/arm-none-eabi/9.2.1/../../../arm-none-eabi/lib/thumb/v7e-m+fp/hard/libc_nano.a(lib_a-__call_atexit.o)
                                                  /usr/lib/gcc/arm-none-eabi/9.2.1/../../../arm-none-eabi/lib/thumb/v7e-m+fp/hard/libc_nano.a(lib_a-__atexit.o)
                                                  /usr/lib/gcc/arm-none-eabi/9.2.1/../../../arm-none-eabi/lib/thumb/v7e-m+fp/hard/libc_nano.a(lib_a-exit.o)
__deregister_frame_info                           /usr/lib/gcc/arm-none-eabi/9.2.1/thumb/v7e-m+fp/hard/crtbegin.o
__dso_handle                                      /usr/lib/gcc/arm-none-eabi/9.2.1/thumb/v7e-m+fp/hard/crtbegin.o
__fini_array_end                                  /usr/lib/gcc/arm-none-eabi/9.2.1/../../../arm-none-eabi/lib/thumb/v7e-m+fp/hard/libc_nano.a(lib_a-fini.o)
__fini_array_start                                /usr/lib/gcc/arm-none-eabi/9.2.1/../../../arm-none-eabi/lib/thumb/v7e-m+fp/hard/libc_nano.a(lib_a-fini.o)
__fp_lock_all                                     /usr/lib/gcc/arm-none-eabi/9.2.1/../../../arm-none-eabi/lib/thumb/v7e-m+fp/hard/libc_nano.a(lib_a-findfp.o)
__fp_unlock_all                                   /usr/lib/gcc/arm-none-eabi/9.2.1/../../../arm-none-eabi/lib/thumb/v7e-m+fp/hard/libc_nano.a(lib_a-findfp.o)
__init_array_end                                  /usr/lib/gcc/arm-none-eabi/9.2.1/../../../arm-none-eabi/lib/thumb/v7e-m+fp/hard/libc_nano.a(lib_a-init.o)
__init_array_start                                /usr/lib/gcc/arm-none-eabi/9.2.1/../../../arm-none-eabi/lib/thumb/v7e-m+fp/hard/libc_nano.a(lib_a-init.o)
__libc_fini_array                                 /usr/lib/gcc/arm-none-eabi/9.2.1/../../../arm-none-eabi/lib/thumb/v7e-m+fp/hard/libc_nano.a(lib_a-fini.o)
                                                  /usr/lib/gcc/arm-none-eabi/9.2.1/../../../arm-none-eabi/lib/thumb/v7e-m+fp/hard/crt0.o
__libc_init_array                                 /usr/lib/gcc/arm-none-eabi/9.2.1/../../../arm-none-eabi/lib/thumb/v7e-m+fp/hard/libc_nano.a(lib_a-init.o)
                                                  hal/startup_stm32g431xx.o
                                                  /usr/lib/gcc/arm-none-eabi/9.2.1/../../../arm-none-eabi/lib/thumb/v7e-m+fp/hard/crt0.o
__malloc_free_list                                /usr/lib/gcc/arm-none-eabi/9.2.1/../../../arm-none-eabi/lib/thumb/v7e-m+fp/hard/libc_nano.a(lib_a-nano-mallocr.o)
                                                  /usr/lib/gcc/arm-none-eabi/9.2.1/../../../arm-none-eabi/lib/thumb/v7e-m+fp/hard/libc_nano.a(lib_a-nano-freer.o)
__malloc_lock                                     /usr/lib/gcc/arm-none-eabi/9.2.1/../../../arm-none-eabi/lib/thumb/v7e-m+fp/hard/libc_nano.a(lib_a-mlock.o)
                                                  /usr/lib/gcc/arm-none-eabi/9.2.1/../../../arm-none-eabi/lib/thumb/v7e-m+fp/hard/libc_nano.a(lib_a-nano-mallocr.o)
                                                  /usr/lib/gcc/arm-none-eabi/9.2.1/../../../arm-none-eabi/lib/thumb/v7e-m+fp/hard/libc_nano.a(lib_a-nano-freer.o)
__malloc_sbrk_start                               /usr/lib/gcc/arm-none-eabi/9.2.1/../../../arm-none-eabi/lib/thumb/v7e-m+fp/hard/libc_nano.a(lib_a-nano-mallocr.o)
__malloc_unlock                                   /usr/lib/gcc/arm-none-eabi/9.2.1/../../../arm-none-eabi/lib/thumb/v7e-m+fp/hard/libc_nano.a(lib_a-mlock.o)
                                                  /usr/lib/gcc/arm-none-eabi/9.2.1/../../../arm-none-eabi/lib/thumb/v7e-m+fp/hard/libc_nano.a(lib_a-nano-mallocr.o)
                                                  /usr/lib/gcc/arm-none-eabi/9.2.1/../../../arm-none-eabi/lib/thumb/v7e-m+fp/hard/libc_nano.a(lib_a-nano-freer.o)
__on_exit_args                                    /usr/lib/gcc/arm-none-eabi/9.2.1/../../../arm-none-eabi/lib/thumb/v7e-m+fp/hard/libc_nano.a(lib_a-__atexit.o)
__preinit_array_end                               /usr/lib/gcc/arm-none-eabi/9.2.1/../../../arm-none-eabi/lib/thumb/v7e-m+fp/hard/libc_nano.a(lib_a-init.o)
__preinit_array_start                             /usr/lib/gcc/arm-none-eabi/9.2.1/../../../arm-none-eabi/lib/thumb/v7e-m+fp/hard/libc_nano.a(lib_a-init.o)
__register_exitproc                               /usr/lib/gcc/arm-none-eabi/9.2.1/../../../arm-none-eabi/lib/thumb/v7e-m+fp/hard/libc_nano.a(lib_a-__atexit.o)
                                                  /usr/lib/gcc/arm-none-eabi/9.2.1/../../../arm-none-eabi/lib/thumb/v7e-m+fp/hard/libc_nano.a(lib_a-atexit.o)
__register_frame_info                             /usr/lib/gcc/arm-none-eabi/9.2.1/thumb/v7e-m+fp/hard/crtbegin.o
__sclose                                          /usr/lib/gcc/arm-none-eabi/9.2.1/../../../arm-none-eabi/lib/thumb/v7e-m+fp/hard/libc_nano.a(lib_a-stdio.o)
                                                  /usr/lib/gcc/arm-none-eabi/9.2.1/../../../arm-none-eabi/lib/thumb/v7e-m+fp/hard/libc_nano.a(lib_a-findfp.o)
__seofread                                        /usr/lib/gcc/arm-none-eabi/9.2.1/../../../arm-none-eabi/lib/thumb/v7e-m+fp/hard/libc_nano.a(lib_a-stdio.o)
__sf_fake_stderr                                  /usr/lib/gcc/arm-none-eabi/9.2.1/../../../arm-none-eabi/lib/thumb/v7e-m+fp/hard/libc_nano.a(lib_a-findfp.o)
                                                  /usr/lib/gcc/arm-none-eabi/9.2.1/../../../arm-none-eabi/lib/thumb/v7e-m+fp/hard/libc_nano.a(lib_a-fflush.o)
                                                  /usr/lib/gcc/arm-none-eabi/9.2.1/../../../arm-none-eabi/lib/thumb/v7e-m+fp/hard/libc_nano.a(lib_a-wsetup.o)
                                                  /usr/lib/gcc/arm-none-eabi/9.2.1/../../../arm-none-eabi/lib/thumb/v7e-m+fp/hard/libc_nano.a(lib_a-wbuf.o)
                                                  /usr/lib/gcc/arm-none-eabi/9.2.1/../../../arm-none-eabi/lib/thumb/v7e-m+fp/hard/libc_nano.a(lib_a-nano-vfprintf.o)
                                                  /usr/lib/gcc/arm-none-eabi/9.2.1/../../../arm-none-eabi/lib/thumb/v7e-m+fp/hard/libc_nano.a(lib_a-impure.o)
__sf_fake_stdin                                   /usr/lib/gcc/arm-none-eabi/9.2.1/../../../arm-none-eabi/lib/thumb/v7e-m+fp/hard/libc_nano.a(lib_a-findfp.o)
                                                  /usr/lib/gcc/arm-none-eabi/9.2.1/../../../arm-none-eabi/lib/thumb/v7e-m+fp/hard/libc_nano.a(lib_a-fflush.o)
                                                  /usr/lib/gcc/arm-none-eabi/9.2.1/../../../arm-none-eabi/lib/thumb/v7e-m+fp/hard/libc_nano.a(lib_a-wsetup.o)
                                                  /usr/lib/gcc/arm-none-eabi/9.2.1/../../../arm-none-eabi/lib/thumb/v7e-m+fp/hard/libc_nano.a(lib_a-wbuf.o)
                                                  /usr/lib/gcc/arm-none-eabi/9.2.1/../../../arm-none-eabi/lib/thumb/v7e-m+fp/hard/libc_nano.a(lib_a-nano-vfprintf.o)
                                                  /usr/lib/gcc/arm-none-eabi/9.2.1/../../../arm-none-eabi/lib/thumb/v7e-m+fp/hard/libc_nano.a(lib_a-impure.o)
__sf_fake_stdout                                  /usr/lib/gcc/arm-none-eabi/9.2.1/../../../arm-none-eabi/lib/thumb/v7e-m+fp/hard/libc_nano.a(lib_a-findfp.o)
                                                  /usr/lib/gcc/arm-none-eabi/9.2.1/../../../arm-none-eabi/lib/thumb/v7e-m+fp/hard/libc_nano.a(lib_a-fflush.o)
                                                  /usr/lib/gcc/arm-none-eabi/9.2.1/../../../arm-none-eabi/lib/thumb/v7e-m+fp/hard/libc_nano.a(lib_a-wsetup.o)
                                                  /usr/lib/gcc/arm-none-eabi/9.2.1/../../../arm-none-eabi/lib/thumb/v7e-m+fp/hard/libc_nano.a(lib_a-wbuf.o)
                                                  /usr/lib/gcc/arm-none-eabi/9.2.1/../../../arm-none-eabi/lib/thumb/v7e-m+fp/hard/libc_nano.a(lib_a-nano-vfprintf.o)
                                                  /usr/lib/gcc/arm-none-eabi/9.2.1/../../../arm-none-eabi/lib/thumb/v7e-m+fp/hard/libc_nano.a(lib_a-impure.o)
__sflush_r                                        /usr/lib/gcc/arm-none-eabi/9.2.1/../../../arm-none-eabi/lib/thumb/v7e-m+fp/hard/libc_nano.a(lib_a-fflush.o)
__sfmoreglue                                      /usr/lib/gcc/arm-none-eabi/9.2.1/../../../arm-none-eabi/lib/thumb/v7e-m+fp/hard/libc_nano.a(lib_a-findfp.o)
__sfp                                             /usr/lib/gcc/arm-none-eabi/9.2.1/../../../arm-none-eabi/lib/thumb/v7e-m+fp/hard/libc_nano.a(lib_a-findfp.o)
__sfp_lock_acquire                                /usr/lib/gcc/arm-none-eabi/9.2.1/../../../arm-none-eabi/lib/thumb/v7e-m+fp/hard/libc_nano.a(lib_a-findfp.o)
__sfp_lock_release                                /usr/lib/gcc/arm-none-eabi/9.2.1/../../../arm-none-eabi/lib/thumb/v7e-m+fp/hard/libc_nano.a(lib_a-findfp.o)
__sfputs_r                                        /usr/lib/gcc/arm-none-eabi/9.2.1/../../../arm-none-eabi/lib/thumb/v7e-m+fp/hard/libc_nano.a(lib_a-nano-vfprintf.o)
__sfvwrite_r                                      /usr/lib/gcc/arm-none-eabi/9.2.1/../../../arm-none-eabi/lib/thumb/v7e-m+fp/hard/libc_nano.a(lib_a-fvwrite.o)
                                                  /usr/lib/gcc/arm-none-eabi/9.2.1/../../../arm-none-eabi/lib/thumb/v7e-m+fp/hard/libc_nano.a(lib_a-nano-vfprintf.o)
__sigtramp                                        /usr/lib/gcc/arm-none-eabi/9.2.1/../../../arm-none-eabi/lib/thumb/v7e-m+fp/hard/libc_nano.a(lib_a-signal.o)
__sigtramp_r                                      /usr/lib/gcc/arm-none-eabi/9.2.1/../../../arm-none-eabi/lib/thumb/v7e-m+fp/hard/libc_nano.a(lib_a-signal.o)
__sinit                                           /usr/lib/gcc/arm-none-eabi/9.2.1/../../../arm-none-eabi/lib/thumb/v7e-m+fp/hard/libc_nano.a(lib_a-findfp.o)
                                                  /usr/lib/gcc/arm-none-eabi/9.2.1/../../../arm-none-eabi/lib/thumb/v7e-m+fp/hard/libc_nano.a(lib_a-fflush.o)
                                                  /usr/lib/gcc/arm-none-eabi/9.2.1/../../../arm-none-eabi/lib/thumb/v7e-m+fp/hard/libc_nano.a(lib_a-wsetup.o)
                                                  /usr/lib/gcc/arm-none-eabi/9.2.1/../../../arm-none-eabi/lib/thumb/v7e-m+fp/hard/libc_nano.a(lib_a-wbuf.o)
                                                  /usr/lib/gcc/arm-none-eabi/9.2.1/../../../arm-none-eabi/lib/thumb/v7e-m+fp/hard/libc_nano.a(lib_a-printf.o)
                                                  /usr/lib/gcc/arm-none-eabi/9.2.1/../../../arm-none-eabi/lib/thumb/v7e-m+fp/hard/libc_nano.a(lib_a-nano-vfprintf.o)
__sinit_lock_acquire                              /usr/lib/gcc/arm-none-eabi/9.2.1/../../../arm-none-eabi/lib/thumb/v7e-m+fp/hard/libc_nano.a(lib_a-findfp.o)
__sinit_lock_release                              /usr/lib/gcc/arm-none-eabi/9.2.1/../../../arm-none-eabi/lib/thumb/v7e-m+fp/hard/libc_nano.a(lib_a-findfp.o)
__smakebuf_r                                      /usr/lib/gcc/arm-none-eabi/9.2.1/../../../arm-none-eabi/lib/thumb/v7e-m+fp/hard/libc_nano.a(lib_a-makebuf.o)
                                                  /usr/lib/gcc/arm-none-eabi/9.2.1/../../../arm-none-eabi/lib/thumb/v7e-m+fp/hard/libc_nano.a(lib_a-wsetup.o)
__sprint_r                                        /usr/lib/gcc/arm-none-eabi/9.2.1/../../../arm-none-eabi/lib/thumb/v7e-m+fp/hard/libc_nano.a(lib_a-nano-vfprintf.o)
__sread                                           /usr/lib/gcc/arm-none-eabi/9.2.1/../../../arm-none-eabi/lib/thumb/v7e-m+fp/hard/libc_nano.a(lib_a-stdio.o)
                                                  /usr/lib/gcc/arm-none-eabi/9.2.1/../../../arm-none-eabi/lib/thumb/v7e-m+fp/hard/libc_nano.a(lib_a-findfp.o)
__sseek                                           /usr/lib/gcc/arm-none-eabi/9.2.1/../../../arm-none-eabi/lib/thumb/v7e-m+fp/hard/libc_nano.a(lib_a-stdio.o)
                                                  /usr/lib/gcc/arm-none-eabi/9.2.1/../../../arm-none-eabi/lib/thumb/v7e-m+fp/hard/libc_nano.a(lib_a-findfp.o)
__stack                                           /usr/lib/gcc/arm-none-eabi/9.2.1/../../../arm-none-eabi/lib/thumb/v7e-m+fp/hard/crt0.o
__swbuf                                           /usr/lib/gcc/arm-none-eabi/9.2.1/../../../arm-none-eabi/lib/thumb/v7e-m+fp/hard/libc_nano.a(lib_a-wbuf.o)
__swbuf_r                                         /usr/lib/gcc/arm-none-eabi/9.2.1/../../../arm-none-eabi/lib/thumb/v7e-m+fp/hard/libc_nano.a(lib_a-wbuf.o)
                                                  /usr/lib/gcc/arm-none-eabi/9.2.1/../../../arm-none-eabi/lib/thumb/v7e-m+fp/hard/libc_nano.a(lib_a-nano-vfprintf.o)
__swhatbuf_r                                      /usr/lib/gcc/arm-none-eabi/9.2.1/../../../arm-none-eabi/lib/thumb/v7e-m+fp/hard/libc_nano.a(lib_a-makebuf.o)
__swrite                                          /usr/lib/gcc/arm-none-eabi/9.2.1/../../../arm-none-eabi/lib/thumb/v7e-m+fp/hard/libc_nano.a(lib_a-stdio.o)
                                                  /usr/lib/gcc/arm-none-eabi/9.2.1/../../../arm-none-eabi/lib/thumb/v7e-m+fp/hard/libc_nano.a(lib_a-findfp.o)
__swsetup_r                                       /usr/lib/gcc/arm-none-eabi/9.2.1/../../../arm-none-eabi/lib/thumb/v7e-m+fp/hard/libc_nano.a(lib_a-wsetup.o)
                                                  /usr/lib/gcc/arm-none-eabi/9.2.1/../../../arm-none-eabi/lib/thumb/v7e-m+fp/hard/libc_nano.a(lib_a-fvwrite.o)
                                                  /usr/lib/gcc/arm-none-eabi/9.2.1/../../../arm-none-eabi/lib/thumb/v7e-m+fp/hard/libc_nano.a(lib_a-wbuf.o)
                                                  /usr/lib/gcc/arm-none-eabi/9.2.1/../../../arm-none-eabi/lib/thumb/v7e-m+fp/hard/libc_nano.a(lib_a-nano-vfprintf.o)
__udivmoddi4                                      /usr/lib/gcc/arm-none-eabi/9.2.1/thumb/v7e-m+fp/hard/libgcc.a(_udivmoddi4.o)
                                                  /usr/lib/gcc/arm-none-eabi/9.2.1/thumb/v7e-m+fp/hard/libgcc.a(_aeabi_uldivmod.o)
_cleanup                                          /usr/lib/gcc/arm-none-eabi/9.2.1/../../../arm-none-eabi/lib/thumb/v7e-m+fp/hard/libc_nano.a(lib_a-findfp.o)
_cleanup_r                                        /usr/lib/gcc/arm-none-eabi/9.2.1/../../../arm-none-eabi/lib/thumb/v7e-m+fp/hard/libc_nano.a(lib_a-findfp.o)
                                                  /usr/lib/gcc/arm-none-eabi/9.2.1/../../../arm-none-eabi/lib/thumb/v7e-m+fp/hard/libc_nano.a(lib_a-makebuf.o)
_close                                            /usr/lib/gcc/arm-none-eabi/9.2.1/../../../arm-none-eabi/lib/thumb/v7e-m+fp/hard/libc_nano.a(lib_a-closer.o)
_close_r                                          /usr/lib/gcc/arm-none-eabi/9.2.1/../../../arm-none-eabi/lib/thumb/v7e-m+fp/hard/libc_nano.a(lib_a-closer.o)
                                                  /usr/lib/gcc/arm-none-eabi/9.2.1/../../../arm-none-eabi/lib/thumb/v7e-m+fp/hard/libc_nano.a(lib_a-stdio.o)
_ebss                                             hal/startup_stm32g431xx.o
_edata                                            hal/startup_stm32g431xx.o
_estack                                           hal/startup_stm32g431xx.o
_exit                                             /usr/lib/gcc/arm-none-eabi/9.2.1/../../../arm-none-eabi/lib/thumb/v7e-m+fp/hard/libnosys.a(_exit.o)
                                                  /usr/lib/gcc/arm-none-eabi/9.2.1/../../../arm-none-eabi/lib/thumb/v7e-m+fp/hard/libc_nano.a(lib_a-abort.o)
                                                  /usr/lib/gcc/arm-none-eabi/9.2.1/../../../arm-none-eabi/lib/thumb/v7e-m+fp/hard/libc_nano.a(lib_a-exit.o)
_fflush_r                                         /usr/lib/gcc/arm-none-eabi/9.2.1/../../../arm-none-eabi/lib/thumb/v7e-m+fp/hard/libc_nano.a(lib_a-fflush.o)
                                                  /usr/lib/gcc/arm-none-eabi/9.2.1/../../../arm-none-eabi/lib/thumb/v7e-m+fp/hard/libc_nano.a(lib_a-fvwrite.o)
                                                  /usr/lib/gcc/arm-none-eabi/9.2.1/../../../arm-none-eabi/lib/thumb/v7e-m+fp/hard/libc_nano.a(lib_a-findfp.o)
                                                  /usr/lib/gcc/arm-none-eabi/9.2.1/../../../arm-none-eabi/lib/thumb/v7e-m+fp/hard/libc_nano.a(lib_a-wbuf.o)
_fini                                             /usr/lib/gcc/arm-none-eabi/9.2.1/thumb/v7e-m+fp/hard/crti.o
                                                  /usr/lib/gcc/arm-none-eabi/9.2.1/../../../arm-none-eabi/lib/thumb/v7e-m+fp/hard/libc_nano.a(lib_a-fini.o)
_fiprintf_r                                       /usr/lib/gcc/arm-none-eabi/9.2.1/../../../arm-none-eabi/lib/thumb/v7e-m+fp/hard/libc_nano.a(lib_a-fprintf.o)
_fprintf_r                                        /usr/lib/gcc/arm-none-eabi/9.2.1/../../../arm-none-eabi/lib/thumb/v7e-m+fp/hard/libc_nano.a(lib_a-fprintf.o)
_free_r                                           /usr/lib/gcc/arm-none-eabi/9.2.1/../../../arm-none-eabi/lib/thumb/v7e-m+fp/hard/libc_nano.a(lib_a-nano-freer.o)
                                                  /usr/lib/gcc/arm-none-eabi/9.2.1/../../../arm-none-eabi/lib/thumb/v7e-m+fp/hard/libc_nano.a(lib_a-reent.o)
                                                  /usr/lib/gcc/arm-none-eabi/9.2.1/../../../arm-none-eabi/lib/thumb/v7e-m+fp/hard/libc_nano.a(lib_a-nano-reallocr.o)
                                                  /usr/lib/gcc/arm-none-eabi/9.2.1/../../../arm-none-eabi/lib/thumb/v7e-m+fp/hard/libc_nano.a(lib_a-fvwrite.o)
                                                  /usr/lib/gcc/arm-none-eabi/9.2.1/../../../arm-none-eabi/lib/thumb/v7e-m+fp/hard/libc_nano.a(lib_a-fflush.o)
                                                  /usr/lib/gcc/arm-none-eabi/9.2.1/../../../arm-none-eabi/lib/thumb/v7e-m+fp/hard/libc_nano.a(lib_a-wsetup.o)
                                                  /usr/lib/gcc/arm-none-eabi/9.2.1/../../../arm-none-eabi/lib/thumb/v7e-m+fp/hard/libc_nano.a(lib_a-malloc.o)
_fstat                                            /usr/lib/gcc/arm-none-eabi/9.2.1/../../../arm-none-eabi/lib/thumb/v7e-m+fp/hard/libc_nano.a(lib_a-fstatr.o)
_fstat_r                                          /usr/lib/gcc/arm-none-eabi/9.2.1/../../../arm-none-eabi/lib/thumb/v7e-m+fp/hard/libc_nano.a(lib_a-fstatr.o)
                                                  /usr/lib/gcc/arm-none-eabi/9.2.1/../../../arm-none-eabi/lib/thumb/v7e-m+fp/hard/libc_nano.a(lib_a-makebuf.o)
_fwalk                                            /usr/lib/gcc/arm-none-eabi/9.2.1/../../../arm-none-eabi/lib/thumb/v7e-m+fp/hard/libc_nano.a(lib_a-fwalk.o)
                                                  /usr/lib/gcc/arm-none-eabi/9.2.1/../../../arm-none-eabi/lib/thumb/v7e-m+fp/hard/libc_nano.a(lib_a-findfp.o)
_fwalk_reent                                      /usr/lib/gcc/arm-none-eabi/9.2.1/../../../arm-none-eabi/lib/thumb/v7e-m+fp/hard/libc_nano.a(lib_a-fwalk.o)
                                                  /usr/lib/gcc/arm-none-eabi/9.2.1/../../../arm-none-eabi/lib/thumb/v7e-m+fp/hard/libc_nano.a(lib_a-findfp.o)
                                                  /usr/lib/gcc/arm-none-eabi/9.2.1/../../../arm-none-eabi/lib/thumb/v7e-m+fp/hard/libc_nano.a(lib_a-fflush.o)
_getpid                                           /usr/lib/gcc/arm-none-eabi/9.2.1/../../../arm-none-eabi/lib/thumb/v7e-m+fp/hard/libc_nano.a(lib_a-signalr.o)
_getpid_r                                         /usr/lib/gcc/arm-none-eabi/9.2.1/../../../arm-none-eabi/lib/thumb/v7e-m+fp/hard/libc_nano.a(lib_a-signalr.o)
                                                  /usr/lib/gcc/arm-none-eabi/9.2.1/../../../arm-none-eabi/lib/thumb/v7e-m+fp/hard/libc_nano.a(lib_a-signal.o)
_global_atexit                                    /usr/lib/gcc/arm-none-eabi/9.2.1/../../../arm-none-eabi/lib/thumb/v7e-m+fp/hard/libc_nano.a(lib_a-__call_atexit.o)
                                                  /usr/lib/gcc/arm-none-eabi/9.2.1/../../../arm-none-eabi/lib/thumb/v7e-m+fp/hard/libc_nano.a(lib_a-__atexit.o)
_global_impure_ptr                                /usr/lib/gcc/arm-none-eabi/9.2.1/../../../arm-none-eabi/lib/thumb/v7e-m+fp/hard/libc_nano.a(lib_a-impure.o)
                                                  /usr/lib/gcc/arm-none-eabi/9.2.1/../../../arm-none-eabi/lib/thumb/v7e-m+fp/hard/libc_nano.a(lib_a-findfp.o)
                                                  /usr/lib/gcc/arm-none-eabi/9.2.1/../../../arm-none-eabi/lib/thumb/v7e-m+fp/hard/libc_nano.a(lib_a-fflush.o)
                                                  /usr/lib/gcc/arm-none-eabi/9.2.1/../../../arm-none-eabi/lib/thumb/v7e-m+fp/hard/libc_nano.a(lib_a-exit.o)
_impure_ptr                                       /usr/lib/gcc/arm-none-eabi/9.2.1/../../../arm-none-eabi/lib/thumb/v7e-m+fp/hard/libc_nano.a(lib_a-impure.o)
                                                  /usr/lib/gcc/arm-none-eabi/9.2.1/../../../arm-none-eabi/lib/thumb/v7e-m+fp/hard/libc_nano.a(lib_a-signal.o)
                                                  /usr/lib/gcc/arm-none-eabi/9.2.1/../../../arm-none-eabi/lib/thumb/v7e-m+fp/hard/libc_nano.a(lib_a-reent.o)
                                                  /usr/lib/gcc/arm-none-eabi/9.2.1/../../../arm-none-eabi/lib/thumb/v7e-m+fp/hard/libc_nano.a(lib_a-findfp.o)
                                                  /usr/lib/gcc/arm-none-eabi/9.2.1/../../../arm-none-eabi/lib/thumb/v7e-m+fp/hard/libc_nano.a(lib_a-fflush.o)
                                                  /usr/lib/gcc/arm-none-eabi/9.2.1/../../../arm-none-eabi/lib/thumb/v7e-m+fp/hard/libc_nano.a(lib_a-wsetup.o)
                                                  /usr/lib/gcc/arm-none-eabi/9.2.1/../../../arm-none-eabi/lib/thumb/v7e-m+fp/hard/libc_nano.a(lib_a-wbuf.o)
                                                  /usr/lib/gcc/arm-none-eabi/9.2.1/../../../arm-none-eabi/lib/thumb/v7e-m+fp/hard/libc_nano.a(lib_a-printf.o)
                                                  /usr/lib/gcc/arm-none-eabi/9.2.1/../../../arm-none-eabi/lib/thumb/v7e-m+fp/hard/libc_nano.a(lib_a-nano-vfprintf.o)
                                                  /usr/lib/gcc/arm-none-eabi/9.2.1/../../../arm-none-eabi/lib/thumb/v7e-m+fp/hard/libc_nano.a(lib_a-malloc.o)
                                                  /usr/lib/gcc/arm-none-eabi/9.2.1/../../../arm-none-eabi/lib/thumb/v7e-m+fp/hard/libc_nano.a(lib_a-fprintf.o)
                                                  /usr/lib/gcc/arm-none-eabi/9.2.1/../../../arm-none-eabi/lib/thumb/v7e-m+fp/hard/libc_nano.a(lib_a-assert.o)
_init                                             /usr/lib/gcc/arm-none-eabi/9.2.1/thumb/v7e-m+fp/hard/crti.o
                                                  /usr/lib/gcc/arm-none-eabi/9.2.1/../../../arm-none-eabi/lib/thumb/v7e-m+fp/hard/libc_nano.a(lib_a-init.o)
_init_signal                                      /usr/lib/gcc/arm-none-eabi/9.2.1/../../../arm-none-eabi/lib/thumb/v7e-m+fp/hard/libc_nano.a(lib_a-signal.o)
_init_signal_r                                    /usr/lib/gcc/arm-none-eabi/9.2.1/../../../arm-none-eabi/lib/thumb/v7e-m+fp/hard/libc_nano.a(lib_a-signal.o)
_iprintf_r                                        /usr/lib/gcc/arm-none-eabi/9.2.1/../../../arm-none-eabi/lib/thumb/v7e-m+fp/hard/libc_nano.a(lib_a-printf.o)
_isatty                                           /usr/lib/gcc/arm-none-eabi/9.2.1/../../../arm-none-eabi/lib/thumb/v7e-m+fp/hard/libc_nano.a(lib_a-isattyr.o)
_isatty_r                                         /usr/lib/gcc/arm-none-eabi/9.2.1/../../../arm-none-eabi/lib/thumb/v7e-m+fp/hard/libc_nano.a(lib_a-isattyr.o)
                                                  /usr/lib/gcc/arm-none-eabi/9.2.1/../../../arm-none-eabi/lib/thumb/v7e-m+fp/hard/libc_nano.a(lib_a-makebuf.o)
_kill                                             /usr/lib/gcc/arm-none-eabi/9.2.1/../../../arm-none-eabi/lib/thumb/v7e-m+fp/hard/libc_nano.a(lib_a-signalr.o)
_kill_r                                           /usr/lib/gcc/arm-none-eabi/9.2.1/../../../arm-none-eabi/lib/thumb/v7e-m+fp/hard/libc_nano.a(lib_a-signalr.o)
                                                  /usr/lib/gcc/arm-none-eabi/9.2.1/../../../arm-none-eabi/lib/thumb/v7e-m+fp/hard/libc_nano.a(lib_a-signal.o)
_lseek                                            /usr/lib/gcc/arm-none-eabi/9.2.1/../../../arm-none-eabi/lib/thumb/v7e-m+fp/hard/libc_nano.a(lib_a-lseekr.o)
_lseek_r                                          /usr/lib/gcc/arm-none-eabi/9.2.1/../../../arm-none-eabi/lib/thumb/v7e-m+fp/hard/libc_nano.a(lib_a-lseekr.o)
                                                  /usr/lib/gcc/arm-none-eabi/9.2.1/../../../arm-none-eabi/lib/thumb/v7e-m+fp/hard/libc_nano.a(lib_a-stdio.o)
_mainCRTStartup                                   /usr/lib/gcc/arm-none-eabi/9.2.1/../../../arm-none-eabi/lib/thumb/v7e-m+fp/hard/crt0.o
_malloc_r                                         /usr/lib/gcc/arm-none-eabi/9.2.1/../../../arm-none-eabi/lib/thumb/v7e-m+fp/hard/libc_nano.a(lib_a-nano-mallocr.o)
                                                  /usr/lib/gcc/arm-none-eabi/9.2.1/../../../arm-none-eabi/lib/thumb/v7e-m+fp/hard/libc_nano.a(lib_a-signal.o)
                                                  /usr/lib/gcc/arm-none-eabi/9.2.1/../../../arm-none-eabi/lib/thumb/v7e-m+fp/hard/libc_nano.a(lib_a-nano-reallocr.o)
                                                  /usr/lib/gcc/arm-none-eabi/9.2.1/../../../arm-none-eabi/lib/thumb/v7e-m+fp/hard/libc_nano.a(lib_a-makebuf.o)
                                                  /usr/lib/gcc/arm-none-eabi/9.2.1/../../../arm-none-eabi/lib/thumb/v7e-m+fp/hard/libc_nano.a(lib_a-fvwrite.o)
                                                  /usr/lib/gcc/arm-none-eabi/9.2.1/../../../arm-none-eabi/lib/thumb/v7e-m+fp/hard/libc_nano.a(lib_a-findfp.o)
                                                  /usr/lib/gcc/arm-none-eabi/9.2.1/../../../arm-none-eabi/lib/thumb/v7e-m+fp/hard/libc_nano.a(lib_a-malloc.o)
_malloc_usable_size_r                             /usr/lib/gcc/arm-none-eabi/9.2.1/../../../arm-none-eabi/lib/thumb/v7e-m+fp/hard/libc_nano.a(lib_a-nano-msizer.o)
                                                  /usr/lib/gcc/arm-none-eabi/9.2.1/../../../arm-none-eabi/lib/thumb/v7e-m+fp/hard/libc_nano.a(lib_a-nano-reallocr.o)
_printf_common                                    /usr/lib/gcc/arm-none-eabi/9.2.1/../../../arm-none-eabi/lib/thumb/v7e-m+fp/hard/libc_nano.a(lib_a-nano-vfprintf_i.o)
_printf_float                                     /usr/lib/gcc/arm-none-eabi/9.2.1/../../../arm-none-eabi/lib/thumb/v7e-m+fp/hard/libc_nano.a(lib_a-nano-vfprintf.o)
_printf_i                                         /usr/lib/gcc/arm-none-eabi/9.2.1/../../../arm-none-eabi/lib/thumb/v7e-m+fp/hard/libc_nano.a(lib_a-nano-vfprintf_i.o)
                                                  /usr/lib/gcc/arm-none-eabi/9.2.1/../../../arm-none-eabi/lib/thumb/v7e-m+fp/hard/libc_nano.a(lib_a-nano-vfprintf.o)
_printf_r                                         /usr/lib/gcc/arm-none-eabi/9.2.1/../../../arm-none-eabi/lib/thumb/v7e-m+fp/hard/libc_nano.a(lib_a-printf.o)
_raise_r                                          /usr/lib/gcc/arm-none-eabi/9.2.1/../../../arm-none-eabi/lib/thumb/v7e-m+fp/hard/libc_nano.a(lib_a-signal.o)
_read                                             /usr/lib/gcc/arm-none-eabi/9.2.1/../../../arm-none-eabi/lib/thumb/v7e-m+fp/hard/libc_nano.a(lib_a-readr.o)
_read_r                                           /usr/lib/gcc/arm-none-eabi/9.2.1/../../../arm-none-eabi/lib/thumb/v7e-m+fp/hard/libc_nano.a(lib_a-readr.o)
                                                  /usr/lib/gcc/arm-none-eabi/9.2.1/../../../arm-none-eabi/lib/thumb/v7e-m+fp/hard/libc_nano.a(lib_a-stdio.o)
_realloc_r                                        /usr/lib/gcc/arm-none-eabi/9.2.1/../../../arm-none-eabi/lib/thumb/v7e-m+fp/hard/libc_nano.a(lib_a-nano-reallocr.o)
                                                  /usr/lib/gcc/arm-none-eabi/9.2.1/../../../arm-none-eabi/lib/thumb/v7e-m+fp/hard/libc_nano.a(lib_a-fvwrite.o)
_reclaim_reent                                    /usr/lib/gcc/arm-none-eabi/9.2.1/../../../arm-none-eabi/lib/thumb/v7e-m+fp/hard/libc_nano.a(lib_a-reent.o)
_sbrk                                             /usr/lib/gcc/arm-none-eabi/9.2.1/../../../arm-none-eabi/lib/thumb/v7e-m+fp/hard/libc_nano.a(lib_a-sbrkr.o)
_sbrk_r                                           /usr/lib/gcc/arm-none-eabi/9.2.1/../../../arm-none-eabi/lib/thumb/v7e-m+fp/hard/libc_nano.a(lib_a-sbrkr.o)
                                                  /usr/lib/gcc/arm-none-eabi/9.2.1/../../../arm-none-eabi/lib/thumb/v7e-m+fp/hard/libc_nano.a(lib_a-nano-mallocr.o)
_sbss                                             hal/startup_stm32g431xx.o
_sdata                                            hal/startup_stm32g431xx.o
_sidata                                           hal/startup_stm32g431xx.o
_signal_r                                         /usr/lib/gcc/arm-none-eabi/9.2.1/../../../arm-none-eabi/lib/thumb/v7e-m+fp/hard/libc_nano.a(lib_a-signal.o)
_stack_init                                       /usr/lib/gcc/arm-none-eabi/9.2.1/../../../arm-none-eabi/lib/thumb/v7e-m+fp/hard/crt0.o
_start                                            /usr/lib/gcc/arm-none-eabi/9.2.1/../../../arm-none-eabi/lib/thumb/v7e-m+fp/hard/crt0.o
_vfiprintf_r                                      /usr/lib/gcc/arm-none-eabi/9.2.1/../../../arm-none-eabi/lib/thumb/v7e-m+fp/hard/libc_nano.a(lib_a-nano-vfprintf.o)
_vfprintf_r                                       /usr/lib/gcc/arm-none-eabi/9.2.1/../../../arm-none-eabi/lib/thumb/v7e-m+fp/hard/libc_nano.a(lib_a-nano-vfprintf.o)
                                                  /usr/lib/gcc/arm-none-eabi/9.2.1/../../../arm-none-eabi/lib/thumb/v7e-m+fp/hard/libc_nano.a(lib_a-printf.o)
                                                  /usr/lib/gcc/arm-none-eabi/9.2.1/../../../arm-none-eabi/lib/thumb/v7e-m+fp/hard/libc_nano.a(lib_a-fprintf.o)
_write                                            /usr/lib/gcc/arm-none-eabi/9.2.1/../../../arm-none-eabi/lib/thumb/v7e-m+fp/hard/libc_nano.a(lib_a-writer.o)
_write_r                                          /usr/lib/gcc/arm-none-eabi/9.2.1/../../../arm-none-eabi/lib/thumb/v7e-m+fp/hard/libc_nano.a(lib_a-writer.o)
                                                  /usr/lib/gcc/arm-none-eabi/9.2.1/../../../arm-none-eabi/lib/thumb/v7e-m+fp/hard/libc_nano.a(lib_a-stdio.o)
abort                                             /usr/lib/gcc/arm-none-eabi/9.2.1/../../../arm-none-eabi/lib/thumb/v7e-m+fp/hard/libc_nano.a(lib_a-abort.o)
                                                  /usr/lib/gcc/arm-none-eabi/9.2.1/../../../arm-none-eabi/lib/thumb/v7e-m+fp/hard/libc_nano.a(lib_a-assert.o)
atexit                                            /usr/lib/gcc/arm-none-eabi/9.2.1/../../../arm-none-eabi/lib/thumb/v7e-m+fp/hard/libc_nano.a(lib_a-atexit.o)
                                                  /usr/lib/gcc/arm-none-eabi/9.2.1/../../../arm-none-eabi/lib/thumb/v7e-m+fp/hard/crt0.o
boot_copy_region                                  /mnt/d/Marcelo/bitbucket/mcuboot/mcuboot/boot/bootutil/src/loader.o
                                                  /mnt/d/Marcelo/bitbucket/mcuboot/mcuboot/boot/bootutil/src/swap_scratch.o
boot_current_slot                                 /mnt/d/Marcelo/bitbucket/mcuboot/mcuboot/boot/bootutil/src/bootutil_misc.o
boot_erase_region                                 /mnt/d/Marcelo/bitbucket/mcuboot/mcuboot/boot/bootutil/src/loader.o
                                                  /mnt/d/Marcelo/bitbucket/mcuboot/mcuboot/boot/bootutil/src/swap_scratch.o
                                                  /mnt/d/Marcelo/bitbucket/mcuboot/mcuboot/boot/bootutil/src/swap_misc.o
boot_fih_memequal                                 /mnt/d/Marcelo/bitbucket/mcuboot/mcuboot/boot/bootutil/src/bootutil_misc.o
                                                  /mnt/d/Marcelo/bitbucket/mcuboot/mcuboot/boot/bootutil/src/image_validate.o
boot_go                                           /mnt/d/Marcelo/bitbucket/mcuboot/mcuboot/boot/bootutil/src/loader.o
                                                  mcuboot_main.o
boot_img_magic                                    /mnt/d/Marcelo/bitbucket/mcuboot/mcuboot/boot/bootutil/src/bootutil_public.o
                                                  /mnt/d/Marcelo/bitbucket/mcuboot/mcuboot/boot/bootutil/src/bootutil_misc.o
boot_magic_compatible_check                       /mnt/d/Marcelo/bitbucket/mcuboot/mcuboot/boot/bootutil/src/bootutil_public.o
                                                  /mnt/d/Marcelo/bitbucket/mcuboot/mcuboot/boot/bootutil/src/swap_scratch.o
boot_read_image_header                            /mnt/d/Marcelo/bitbucket/mcuboot/mcuboot/boot/bootutil/src/swap_scratch.o
                                                  /mnt/d/Marcelo/bitbucket/mcuboot/mcuboot/boot/bootutil/src/loader.o
boot_read_image_ok                                /mnt/d/Marcelo/bitbucket/mcuboot/mcuboot/boot/bootutil/src/bootutil_public.o
boot_read_swap_size                               /mnt/d/Marcelo/bitbucket/mcuboot/mcuboot/boot/bootutil/src/bootutil_misc.o
                                                  /mnt/d/Marcelo/bitbucket/mcuboot/mcuboot/boot/bootutil/src/loader.o
boot_read_swap_state                              /mnt/d/Marcelo/bitbucket/mcuboot/mcuboot/boot/bootutil/src/bootutil_public.o
                                                  /mnt/d/Marcelo/bitbucket/mcuboot/mcuboot/boot/bootutil/src/swap_scratch.o
                                                  /mnt/d/Marcelo/bitbucket/mcuboot/mcuboot/boot/bootutil/src/swap_misc.o
boot_read_swap_state_by_id                        /mnt/d/Marcelo/bitbucket/mcuboot/mcuboot/boot/bootutil/src/bootutil_public.o
                                                  /mnt/d/Marcelo/bitbucket/mcuboot/mcuboot/boot/bootutil/src/swap_scratch.o
                                                  /mnt/d/Marcelo/bitbucket/mcuboot/mcuboot/boot/bootutil/src/swap_misc.o
boot_set_confirmed                                /mnt/d/Marcelo/bitbucket/mcuboot/mcuboot/boot/bootutil/src/bootutil_public.o
boot_set_confirmed_multi                          /mnt/d/Marcelo/bitbucket/mcuboot/mcuboot/boot/bootutil/src/bootutil_public.o
boot_set_pending                                  /mnt/d/Marcelo/bitbucket/mcuboot/mcuboot/boot/bootutil/src/bootutil_public.o
boot_set_pending_multi                            /mnt/d/Marcelo/bitbucket/mcuboot/mcuboot/boot/bootutil/src/bootutil_public.o
boot_slots_compatible                             /mnt/d/Marcelo/bitbucket/mcuboot/mcuboot/boot/bootutil/src/swap_scratch.o
                                                  /mnt/d/Marcelo/bitbucket/mcuboot/mcuboot/boot/bootutil/src/loader.o
boot_status_entries                               /mnt/d/Marcelo/bitbucket/mcuboot/mcuboot/boot/bootutil/src/bootutil_misc.o
                                                  /mnt/d/Marcelo/bitbucket/mcuboot/mcuboot/boot/bootutil/src/swap_scratch.o
boot_status_fails                                 /mnt/d/Marcelo/bitbucket/mcuboot/mcuboot/boot/bootutil/src/swap_scratch.o
                                                  /mnt/d/Marcelo/bitbucket/mcuboot/mcuboot/boot/bootutil/src/loader.o
boot_status_internal_off                          /mnt/d/Marcelo/bitbucket/mcuboot/mcuboot/boot/bootutil/src/swap_scratch.o
                                                  /mnt/d/Marcelo/bitbucket/mcuboot/mcuboot/boot/bootutil/src/loader.o
boot_status_is_reset                              /mnt/d/Marcelo/bitbucket/mcuboot/mcuboot/boot/bootutil/src/loader.o
boot_status_off                                   /mnt/d/Marcelo/bitbucket/mcuboot/mcuboot/boot/bootutil/src/bootutil_misc.o
                                                  /mnt/d/Marcelo/bitbucket/mcuboot/mcuboot/boot/bootutil/src/swap_scratch.o
                                                  /mnt/d/Marcelo/bitbucket/mcuboot/mcuboot/boot/bootutil/src/loader.o
boot_status_reset                                 /mnt/d/Marcelo/bitbucket/mcuboot/mcuboot/boot/bootutil/src/loader.o
boot_status_sz                                    /mnt/d/Marcelo/bitbucket/mcuboot/mcuboot/boot/bootutil/src/bootutil_misc.o
boot_swap_info_off                                /mnt/d/Marcelo/bitbucket/mcuboot/mcuboot/boot/bootutil/src/bootutil_public.o
                                                  /mnt/d/Marcelo/bitbucket/mcuboot/mcuboot/boot/bootutil/src/swap_misc.o
                                                  /mnt/d/Marcelo/bitbucket/mcuboot/mcuboot/boot/bootutil/src/bootutil_misc.o
boot_swap_type                                    /mnt/d/Marcelo/bitbucket/mcuboot/mcuboot/boot/bootutil/src/bootutil_public.o
boot_swap_type_multi                              /mnt/d/Marcelo/bitbucket/mcuboot/mcuboot/boot/bootutil/src/bootutil_public.o
                                                  /mnt/d/Marcelo/bitbucket/mcuboot/mcuboot/boot/bootutil/src/loader.o
boot_trailer_sz                                   /mnt/d/Marcelo/bitbucket/mcuboot/mcuboot/boot/bootutil/src/bootutil_misc.o
                                                  /mnt/d/Marcelo/bitbucket/mcuboot/mcuboot/boot/bootutil/src/swap_scratch.o
                                                  /mnt/d/Marcelo/bitbucket/mcuboot/mcuboot/boot/bootutil/src/swap_misc.o
boot_write_copy_done                              /mnt/d/Marcelo/bitbucket/mcuboot/mcuboot/boot/bootutil/src/bootutil_misc.o
                                                  /mnt/d/Marcelo/bitbucket/mcuboot/mcuboot/boot/bootutil/src/swap_misc.o
boot_write_image_ok                               /mnt/d/Marcelo/bitbucket/mcuboot/mcuboot/boot/bootutil/src/bootutil_public.o
                                                  /mnt/d/Marcelo/bitbucket/mcuboot/mcuboot/boot/bootutil/src/swap_scratch.o
                                                  /mnt/d/Marcelo/bitbucket/mcuboot/mcuboot/boot/bootutil/src/swap_misc.o
boot_write_magic                                  /mnt/d/Marcelo/bitbucket/mcuboot/mcuboot/boot/bootutil/src/bootutil_public.o
                                                  /mnt/d/Marcelo/bitbucket/mcuboot/mcuboot/boot/bootutil/src/swap_scratch.o
                                                  /mnt/d/Marcelo/bitbucket/mcuboot/mcuboot/boot/bootutil/src/swap_misc.o
boot_write_status                                 /mnt/d/Marcelo/bitbucket/mcuboot/mcuboot/boot/bootutil/src/loader.o
                                                  /mnt/d/Marcelo/bitbucket/mcuboot/mcuboot/boot/bootutil/src/swap_scratch.o
boot_write_swap_info                              /mnt/d/Marcelo/bitbucket/mcuboot/mcuboot/boot/bootutil/src/bootutil_public.o
                                                  /mnt/d/Marcelo/bitbucket/mcuboot/mcuboot/boot/bootutil/src/swap_scratch.o
                                                  /mnt/d/Marcelo/bitbucket/mcuboot/mcuboot/boot/bootutil/src/swap_misc.o
boot_write_swap_size                              /mnt/d/Marcelo/bitbucket/mcuboot/mcuboot/boot/bootutil/src/bootutil_misc.o
                                                  /mnt/d/Marcelo/bitbucket/mcuboot/mcuboot/boot/bootutil/src/swap_scratch.o
                                                  /mnt/d/Marcelo/bitbucket/mcuboot/mcuboot/boot/bootutil/src/swap_misc.o
boot_write_trailer                                /mnt/d/Marcelo/bitbucket/mcuboot/mcuboot/boot/bootutil/src/bootutil_public.o
                                                  /mnt/d/Marcelo/bitbucket/mcuboot/mcuboot/boot/bootutil/src/bootutil_misc.o
boot_write_trailer_flag                           /mnt/d/Marcelo/bitbucket/mcuboot/mcuboot/boot/bootutil/src/bootutil_public.o
                                                  /mnt/d/Marcelo/bitbucket/mcuboot/mcuboot/boot/bootutil/src/bootutil_misc.o
bootutil_buffer_is_erased                         /mnt/d/Marcelo/bitbucket/mcuboot/mcuboot/boot/bootutil/src/bootutil_public.o
                                                  /mnt/d/Marcelo/bitbucket/mcuboot/mcuboot/boot/bootutil/src/swap_scratch.o
                                                  /mnt/d/Marcelo/bitbucket/mcuboot/mcuboot/boot/bootutil/src/swap_misc.o
bootutil_get_caps                                 /mnt/d/Marcelo/bitbucket/mcuboot/mcuboot/boot/bootutil/src/caps.o
bootutil_get_num_images                           /mnt/d/Marcelo/bitbucket/mcuboot/mcuboot/boot/bootutil/src/caps.o
bootutil_img_validate                             /mnt/d/Marcelo/bitbucket/mcuboot/mcuboot/boot/bootutil/src/image_validate.o
                                                  /mnt/d/Marcelo/bitbucket/mcuboot/mcuboot/boot/bootutil/src/loader.o
bootutil_key_cnt                                  /mnt/d/Marcelo/bitbucket/mcuboot/mcuboot/boot/bootutil/src/image_validate.o
bootutil_keys                                     /mnt/d/Marcelo/bitbucket/mcuboot/mcuboot/boot/bootutil/src/image_validate.o
                                                  /mnt/d/Marcelo/bitbucket/mcuboot/mcuboot/boot/bootutil/src/image_ec256.o
bootutil_tlv_iter_begin                           /mnt/d/Marcelo/bitbucket/mcuboot/mcuboot/boot/bootutil/src/tlv.o
                                                  /mnt/d/Marcelo/bitbucket/mcuboot/mcuboot/boot/bootutil/src/image_validate.o
bootutil_tlv_iter_next                            /mnt/d/Marcelo/bitbucket/mcuboot/mcuboot/boot/bootutil/src/tlv.o
                                                  /mnt/d/Marcelo/bitbucket/mcuboot/mcuboot/boot/bootutil/src/image_validate.o
bootutil_verify_sig                               /mnt/d/Marcelo/bitbucket/mcuboot/mcuboot/boot/bootutil/src/image_ec256.o
                                                  /mnt/d/Marcelo/bitbucket/mcuboot/mcuboot/boot/bootutil/src/image_validate.o
cleanup_glue                                      /usr/lib/gcc/arm-none-eabi/9.2.1/../../../arm-none-eabi/lib/thumb/v7e-m+fp/hard/libc_nano.a(lib_a-reent.o)
context_boot_go                                   /mnt/d/Marcelo/bitbucket/mcuboot/mcuboot/boot/bootutil/src/loader.o
errno                                             /usr/lib/gcc/arm-none-eabi/9.2.1/../../../arm-none-eabi/lib/thumb/v7e-m+fp/hard/libc_nano.a(lib_a-reent.o)
                                                  /usr/lib/gcc/arm-none-eabi/9.2.1/../../../arm-none-eabi/lib/thumb/v7e-m+fp/hard/libc_nano.a(lib_a-readr.o)
                                                  /usr/lib/gcc/arm-none-eabi/9.2.1/../../../arm-none-eabi/lib/thumb/v7e-m+fp/hard/libc_nano.a(lib_a-lseekr.o)
                                                  /usr/lib/gcc/arm-none-eabi/9.2.1/../../../arm-none-eabi/lib/thumb/v7e-m+fp/hard/libc_nano.a(lib_a-isattyr.o)
                                                  /usr/lib/gcc/arm-none-eabi/9.2.1/../../../arm-none-eabi/lib/thumb/v7e-m+fp/hard/libc_nano.a(lib_a-fstatr.o)
                                                  /usr/lib/gcc/arm-none-eabi/9.2.1/../../../arm-none-eabi/lib/thumb/v7e-m+fp/hard/libc_nano.a(lib_a-closer.o)
                                                  /usr/lib/gcc/arm-none-eabi/9.2.1/../../../arm-none-eabi/lib/thumb/v7e-m+fp/hard/libc_nano.a(lib_a-writer.o)
                                                  /usr/lib/gcc/arm-none-eabi/9.2.1/../../../arm-none-eabi/lib/thumb/v7e-m+fp/hard/libc_nano.a(lib_a-signalr.o)
                                                  /usr/lib/gcc/arm-none-eabi/9.2.1/../../../arm-none-eabi/lib/thumb/v7e-m+fp/hard/libc_nano.a(lib_a-sbrkr.o)
exit                                              /usr/lib/gcc/arm-none-eabi/9.2.1/../../../arm-none-eabi/lib/thumb/v7e-m+fp/hard/libc_nano.a(lib_a-exit.o)
                                                  /usr/lib/gcc/arm-none-eabi/9.2.1/../../../arm-none-eabi/lib/thumb/v7e-m+fp/hard/crt0.o
fflush                                            /usr/lib/gcc/arm-none-eabi/9.2.1/../../../arm-none-eabi/lib/thumb/v7e-m+fp/hard/libc_nano.a(lib_a-fflush.o)
fiprintf                                          /usr/lib/gcc/arm-none-eabi/9.2.1/../../../arm-none-eabi/lib/thumb/v7e-m+fp/hard/libc_nano.a(lib_a-fprintf.o)
                                                  /usr/lib/gcc/arm-none-eabi/9.2.1/../../../arm-none-eabi/lib/thumb/v7e-m+fp/hard/libc_nano.a(lib_a-assert.o)
flash_area_align                                  /mnt/d/Marcelo/bitbucket/mcuboot/mcuboot/boot/bootutil/src/loader.o
                                                  /mnt/d/Marcelo/bitbucket/mcuboot/mcuboot/boot/bootutil/src/bootutil_public.o
                                                  /mnt/d/Marcelo/bitbucket/mcuboot/mcuboot/boot/bootutil/src/bootutil_misc.o
flash_area_close                                  /mnt/d/Marcelo/bitbucket/mcuboot/mcuboot/boot/bootutil/src/swap_scratch.o
                                                  /mnt/d/Marcelo/bitbucket/mcuboot/mcuboot/boot/bootutil/src/swap_misc.o
                                                  /mnt/d/Marcelo/bitbucket/mcuboot/mcuboot/boot/bootutil/src/loader.o
                                                  /mnt/d/Marcelo/bitbucket/mcuboot/mcuboot/boot/bootutil/src/bootutil_public.o
                                                  /mnt/d/Marcelo/bitbucket/mcuboot/mcuboot/boot/bootutil/src/bootutil_misc.o
flash_area_erase                                  /mnt/d/Marcelo/bitbucket/mcuboot/mcuboot/boot/bootutil/src/loader.o
                                                  /mnt/d/Marcelo/bitbucket/mcuboot/mcuboot/boot/bootutil/src/bootutil_public.o
flash_area_erased_val                             /mnt/d/Marcelo/bitbucket/mcuboot/mcuboot/boot/bootutil/src/loader.o
                                                  /mnt/d/Marcelo/bitbucket/mcuboot/mcuboot/boot/bootutil/src/bootutil_public.o
flash_area_get_sectors                            /mnt/d/Marcelo/bitbucket/mcuboot/mcuboot/boot/bootutil/src/loader.o
flash_area_id_from_image_slot                     /mnt/d/Marcelo/bitbucket/mcuboot/mcuboot/boot/bootutil/src/loader.o
flash_area_id_from_multi_image_slot               /mnt/d/Marcelo/bitbucket/mcuboot/mcuboot/boot/bootutil/src/swap_scratch.o
                                                  /mnt/d/Marcelo/bitbucket/mcuboot/mcuboot/boot/bootutil/src/swap_misc.o
                                                  /mnt/d/Marcelo/bitbucket/mcuboot/mcuboot/boot/bootutil/src/loader.o
flash_area_open                                   /mnt/d/Marcelo/bitbucket/mcuboot/mcuboot/boot/bootutil/src/swap_scratch.o
                                                  /mnt/d/Marcelo/bitbucket/mcuboot/mcuboot/boot/bootutil/src/swap_misc.o
                                                  /mnt/d/Marcelo/bitbucket/mcuboot/mcuboot/boot/bootutil/src/loader.o
                                                  /mnt/d/Marcelo/bitbucket/mcuboot/mcuboot/boot/bootutil/src/bootutil_public.o
                                                  /mnt/d/Marcelo/bitbucket/mcuboot/mcuboot/boot/bootutil/src/bootutil_misc.o
flash_area_read                                   /mnt/d/Marcelo/bitbucket/mcuboot/mcuboot/boot/bootutil/src/tlv.o
                                                  /mnt/d/Marcelo/bitbucket/mcuboot/mcuboot/boot/bootutil/src/swap_scratch.o
                                                  /mnt/d/Marcelo/bitbucket/mcuboot/mcuboot/boot/bootutil/src/swap_misc.o
                                                  /mnt/d/Marcelo/bitbucket/mcuboot/mcuboot/boot/bootutil/src/loader.o
                                                  /mnt/d/Marcelo/bitbucket/mcuboot/mcuboot/boot/bootutil/src/image_validate.o
                                                  /mnt/d/Marcelo/bitbucket/mcuboot/mcuboot/boot/bootutil/src/bootutil_public.o
                                                  /mnt/d/Marcelo/bitbucket/mcuboot/mcuboot/boot/bootutil/src/bootutil_misc.o
flash_area_write                                  /mnt/d/Marcelo/bitbucket/mcuboot/mcuboot/boot/bootutil/src/loader.o
                                                  /mnt/d/Marcelo/bitbucket/mcuboot/mcuboot/boot/bootutil/src/bootutil_public.o
fprintf                                           /usr/lib/gcc/arm-none-eabi/9.2.1/../../../arm-none-eabi/lib/thumb/v7e-m+fp/hard/libc_nano.a(lib_a-fprintf.o)
free                                              /usr/lib/gcc/arm-none-eabi/9.2.1/../../../arm-none-eabi/lib/thumb/v7e-m+fp/hard/libc_nano.a(lib_a-malloc.o)
                                                  /mnt/d/Marcelo/bitbucket/mcuboot/mcuboot/boot/bootutil/src/loader.o
g_pfnVectors                                      hal/startup_stm32g431xx.o
hardware_init_hook                                /usr/lib/gcc/arm-none-eabi/9.2.1/../../../arm-none-eabi/lib/thumb/v7e-m+fp/hard/crt0.o
huart2                                            hal/Core/Src/main.o
iprintf                                           /usr/lib/gcc/arm-none-eabi/9.2.1/../../../arm-none-eabi/lib/thumb/v7e-m+fp/hard/libc_nano.a(lib_a-printf.o)
main                                              hal/Core/Src/main.o
                                                  hal/startup_stm32g431xx.o
                                                  /usr/lib/gcc/arm-none-eabi/9.2.1/../../../arm-none-eabi/lib/thumb/v7e-m+fp/hard/crt0.o
malloc                                            /usr/lib/gcc/arm-none-eabi/9.2.1/../../../arm-none-eabi/lib/thumb/v7e-m+fp/hard/libc_nano.a(lib_a-malloc.o)
                                                  /mnt/d/Marcelo/bitbucket/mcuboot/mcuboot/boot/bootutil/src/loader.o
                                                  /usr/lib/gcc/arm-none-eabi/9.2.1/../../../arm-none-eabi/lib/thumb/v7e-m+fp/hard/libc_nano.a(lib_a-__atexit.o)
mbedtls_asn1_get_alg                              /mnt/d/Marcelo/bitbucket/mcuboot/mcuboot/boot/bootutil/src/image_ec256.o
mbedtls_asn1_get_bitstring_null                   /mnt/d/Marcelo/bitbucket/mcuboot/mcuboot/boot/bootutil/src/image_ec256.o
mbedtls_asn1_get_tag                              /mnt/d/Marcelo/bitbucket/mcuboot/mcuboot/boot/bootutil/src/image_ec256.o
mbedtls_ecdsa_free                                /mnt/d/Marcelo/bitbucket/mcuboot/mcuboot/boot/bootutil/src/image_ec256.o
mbedtls_ecdsa_init                                /mnt/d/Marcelo/bitbucket/mcuboot/mcuboot/boot/bootutil/src/image_ec256.o
mbedtls_ecdsa_read_signature                      /mnt/d/Marcelo/bitbucket/mcuboot/mcuboot/boot/bootutil/src/image_ec256.o
mbedtls_ecp_check_pubkey                          /mnt/d/Marcelo/bitbucket/mcuboot/mcuboot/boot/bootutil/src/image_ec256.o
mbedtls_ecp_group_load                            /mnt/d/Marcelo/bitbucket/mcuboot/mcuboot/boot/bootutil/src/image_ec256.o
mbedtls_ecp_point_read_binary                     /mnt/d/Marcelo/bitbucket/mcuboot/mcuboot/boot/bootutil/src/image_ec256.o
mbedtls_sha256_finish                             /mnt/d/Marcelo/bitbucket/mcuboot/mcuboot/boot/bootutil/src/image_validate.o
mbedtls_sha256_init                               /mnt/d/Marcelo/bitbucket/mcuboot/mcuboot/boot/bootutil/src/image_validate.o
mbedtls_sha256_starts                             /mnt/d/Marcelo/bitbucket/mcuboot/mcuboot/boot/bootutil/src/image_validate.o
mbedtls_sha256_update                             /mnt/d/Marcelo/bitbucket/mcuboot/mcuboot/boot/bootutil/src/image_validate.o
mcuboot_main                                      mcuboot_main.o
                                                  hal/Core/Src/main.o
memchr                                            /usr/lib/gcc/arm-none-eabi/9.2.1/../../../arm-none-eabi/lib/thumb/v7e-m+fp/hard/libc_nano.a(lib_a-memchr.o)
                                                  /usr/lib/gcc/arm-none-eabi/9.2.1/../../../arm-none-eabi/lib/thumb/v7e-m+fp/hard/libc_nano.a(lib_a-fvwrite.o)
                                                  /usr/lib/gcc/arm-none-eabi/9.2.1/../../../arm-none-eabi/lib/thumb/v7e-m+fp/hard/libc_nano.a(lib_a-nano-vfprintf_i.o)
                                                  /usr/lib/gcc/arm-none-eabi/9.2.1/../../../arm-none-eabi/lib/thumb/v7e-m+fp/hard/libc_nano.a(lib_a-nano-vfprintf.o)
memcmp                                            /usr/lib/gcc/arm-none-eabi/9.2.1/../../../arm-none-eabi/lib/thumb/v7e-m+fp/hard/libc_nano.a(lib_a-memcmp.o)
                                                  /mnt/d/Marcelo/bitbucket/mcuboot/mcuboot/boot/bootutil/src/image_validate.o
                                                  /mnt/d/Marcelo/bitbucket/mcuboot/mcuboot/boot/bootutil/src/image_ec256.o
                                                  /mnt/d/Marcelo/bitbucket/mcuboot/mcuboot/boot/bootutil/src/bootutil_public.o
                                                  /mnt/d/Marcelo/bitbucket/mcuboot/mcuboot/boot/bootutil/src/bootutil_misc.o
memcpy                                            /usr/lib/gcc/arm-none-eabi/9.2.1/../../../arm-none-eabi/lib/thumb/v7e-m+fp/hard/libc_nano.a(lib_a-memcpy.o)
                                                  /usr/lib/gcc/arm-none-eabi/9.2.1/../../../arm-none-eabi/lib/thumb/v7e-m+fp/hard/libc_nano.a(lib_a-nano-reallocr.o)
                                                  /usr/lib/gcc/arm-none-eabi/9.2.1/../../../arm-none-eabi/lib/thumb/v7e-m+fp/hard/libc_nano.a(lib_a-fvwrite.o)
                                                  /mnt/d/Marcelo/bitbucket/mcuboot/mcuboot/boot/bootutil/src/bootutil_public.o
memmove                                           /usr/lib/gcc/arm-none-eabi/9.2.1/../../../arm-none-eabi/lib/thumb/v7e-m+fp/hard/libc_nano.a(lib_a-memmove.o)
                                                  /usr/lib/gcc/arm-none-eabi/9.2.1/../../../arm-none-eabi/lib/thumb/v7e-m+fp/hard/libc_nano.a(lib_a-fvwrite.o)
memset                                            /usr/lib/gcc/arm-none-eabi/9.2.1/../../../arm-none-eabi/lib/thumb/v7e-m+fp/hard/libc_nano.a(lib_a-memset.o)
                                                  /usr/lib/gcc/arm-none-eabi/9.2.1/../../../arm-none-eabi/lib/thumb/v7e-m+fp/hard/libc_nano.a(lib_a-findfp.o)
                                                  hal/Core/Src/main.o
                                                  /mnt/d/Marcelo/bitbucket/mcuboot/mcuboot/boot/bootutil/src/loader.o
                                                  /mnt/d/Marcelo/bitbucket/mcuboot/mcuboot/boot/bootutil/src/bootutil_public.o
                                                  /usr/lib/gcc/arm-none-eabi/9.2.1/../../../arm-none-eabi/lib/thumb/v7e-m+fp/hard/crt0.o
pFlash                                            hal/Drivers/STM32G4xx_HAL_Driver/Src/stm32g4xx_hal_flash.o
                                                  hal/Drivers/STM32G4xx_HAL_Driver/Src/stm32g4xx_hal_flash_ex.o
printf                                            /usr/lib/gcc/arm-none-eabi/9.2.1/../../../arm-none-eabi/lib/thumb/v7e-m+fp/hard/libc_nano.a(lib_a-printf.o)
                                                  /mnt/d/Marcelo/bitbucket/mcuboot/mcuboot/boot/bootutil/src/swap_scratch.o
                                                  /mnt/d/Marcelo/bitbucket/mcuboot/mcuboot/boot/bootutil/src/loader.o
                                                  /mnt/d/Marcelo/bitbucket/mcuboot/mcuboot/boot/bootutil/src/bootutil_public.o
raise                                             /usr/lib/gcc/arm-none-eabi/9.2.1/../../../arm-none-eabi/lib/thumb/v7e-m+fp/hard/libc_nano.a(lib_a-signal.o)
                                                  /usr/lib/gcc/arm-none-eabi/9.2.1/../../../arm-none-eabi/lib/thumb/v7e-m+fp/hard/libc_nano.a(lib_a-abort.o)
signal                                            /usr/lib/gcc/arm-none-eabi/9.2.1/../../../arm-none-eabi/lib/thumb/v7e-m+fp/hard/libc_nano.a(lib_a-signal.o)
software_init_hook                                /usr/lib/gcc/arm-none-eabi/9.2.1/../../../arm-none-eabi/lib/thumb/v7e-m+fp/hard/crt0.o
split_go                                          /mnt/d/Marcelo/bitbucket/mcuboot/mcuboot/boot/bootutil/src/loader.o
stm32_do_boot                                     mcuboot_main.o
swap_erase_trailer_sectors                        /mnt/d/Marcelo/bitbucket/mcuboot/mcuboot/boot/bootutil/src/swap_misc.o
                                                  /mnt/d/Marcelo/bitbucket/mcuboot/mcuboot/boot/bootutil/src/swap_scratch.o
                                                  /mnt/d/Marcelo/bitbucket/mcuboot/mcuboot/boot/bootutil/src/loader.o
swap_read_status                                  /mnt/d/Marcelo/bitbucket/mcuboot/mcuboot/boot/bootutil/src/swap_misc.o
                                                  /mnt/d/Marcelo/bitbucket/mcuboot/mcuboot/boot/bootutil/src/loader.o
swap_read_status_bytes                            /mnt/d/Marcelo/bitbucket/mcuboot/mcuboot/boot/bootutil/src/swap_scratch.o
                                                  /mnt/d/Marcelo/bitbucket/mcuboot/mcuboot/boot/bootutil/src/swap_misc.o
swap_run                                          /mnt/d/Marcelo/bitbucket/mcuboot/mcuboot/boot/bootutil/src/swap_scratch.o
                                                  /mnt/d/Marcelo/bitbucket/mcuboot/mcuboot/boot/bootutil/src/loader.o
swap_set_copy_done                                /mnt/d/Marcelo/bitbucket/mcuboot/mcuboot/boot/bootutil/src/swap_misc.o
                                                  /mnt/d/Marcelo/bitbucket/mcuboot/mcuboot/boot/bootutil/src/loader.o
swap_set_image_ok                                 /mnt/d/Marcelo/bitbucket/mcuboot/mcuboot/boot/bootutil/src/swap_misc.o
                                                  /mnt/d/Marcelo/bitbucket/mcuboot/mcuboot/boot/bootutil/src/loader.o
swap_status_init                                  /mnt/d/Marcelo/bitbucket/mcuboot/mcuboot/boot/bootutil/src/swap_misc.o
                                                  /mnt/d/Marcelo/bitbucket/mcuboot/mcuboot/boot/bootutil/src/swap_scratch.o
swap_status_source                                /mnt/d/Marcelo/bitbucket/mcuboot/mcuboot/boot/bootutil/src/swap_scratch.o
                                                  /mnt/d/Marcelo/bitbucket/mcuboot/mcuboot/boot/bootutil/src/swap_misc.o
uwTick                                            hal/Drivers/STM32G4xx_HAL_Driver/Src/stm32g4xx_hal.o
uwTickFreq                                        hal/Drivers/STM32G4xx_HAL_Driver/Src/stm32g4xx_hal.o
uwTickPrio                                        hal/Drivers/STM32G4xx_HAL_Driver/Src/stm32g4xx_hal.o
                                                  hal/Drivers/STM32G4xx_HAL_Driver/Src/stm32g4xx_hal_rcc.o
vfiprintf                                         /usr/lib/gcc/arm-none-eabi/9.2.1/../../../arm-none-eabi/lib/thumb/v7e-m+fp/hard/libc_nano.a(lib_a-nano-vfprintf.o)
vfprintf                                          /usr/lib/gcc/arm-none-eabi/9.2.1/../../../arm-none-eabi/lib/thumb/v7e-m+fp/hard/libc_nano.a(lib_a-nano-vfprintf.o)
